---
triple:          'x86_64-apple-darwin'
binary-path:     euchre.exe
relocations:
  - { offset: 0x53, size: 0x8, addend: 0x0, symName: __ZL10RANK_NAMES, symObjAddr: 0x26A0, symBinAddr: 0x1000122E0, symSize: 0x0 }
  - { offset: 0x83, size: 0x8, addend: 0x0, symName: __ZL10SUIT_NAMES, symObjAddr: 0x2710, symBinAddr: 0x100012350, symSize: 0x0 }
  - { offset: 0x3190, size: 0x8, addend: 0x0, symName: __ZNSt3__124__put_character_sequenceB8ne180100IcNS_11char_traitsIcEEEERNS_13basic_ostreamIT_T0_EES7_PKS4_m, symObjAddr: 0x13B0, symBinAddr: 0x100002080, symSize: 0x1F0 }
  - { offset: 0x44F1, size: 0x8, addend: 0x0, symName: __ZNSt3__1lsB8ne180100INS_11char_traitsIcEEEERNS_13basic_ostreamIcT_EES6_PKc, symObjAddr: 0x340, symBinAddr: 0x100001010, symSize: 0x40 }
  - { offset: 0x4537, size: 0x8, addend: 0x0, symName: __ZNSt3__14endlB8ne180100IcNS_11char_traitsIcEEEERNS_13basic_ostreamIT_T0_EES7_, symObjAddr: 0x3A0, symBinAddr: 0x100001070, symSize: 0x50 }
  - { offset: 0x4577, size: 0x8, addend: 0x0, symName: __ZNSt3__1rsB8ne180100IcNS_11char_traitsIcEENS_9allocatorIcEEEERNS_13basic_istreamIT_T0_EES9_RNS_12basic_stringIS6_S7_T1_EE, symObjAddr: 0xD80, symBinAddr: 0x100001A50, symSize: 0x2E0 }
  - { offset: 0x4646, size: 0x8, addend: 0x0, symName: __ZNSt3__1eqB8ne180100IcNS_11char_traitsIcEENS_9allocatorIcEEEEbRKNS_12basic_stringIT_T0_T1_EEPKS6_, symObjAddr: 0x1170, symBinAddr: 0x100001E40, symSize: 0x90 }
  - { offset: 0x46AD, size: 0x8, addend: 0x0, symName: __ZNSt3__116__pad_and_outputB8ne180100IcNS_11char_traitsIcEEEENS_19ostreambuf_iteratorIT_T0_EES6_PKS4_S8_S8_RNS_8ios_baseES4_, symObjAddr: 0x15F0, symBinAddr: 0x1000022C0, symSize: 0x220 }
  - { offset: 0x477D, size: 0x8, addend: 0x0, symName: __ZNSt3__112__to_addressB8ne180100IcEEPT_S2_, symObjAddr: 0x1B20, symBinAddr: 0x1000027F0, symSize: 0x10 }
  - { offset: 0x47E5, size: 0x8, addend: 0x0, symName: __ZNSt3__19use_facetB8ne180100INS_5ctypeIcEEEERKT_RKNS_6localeE, symObjAddr: 0x1DB0, symBinAddr: 0x100002A80, symSize: 0x30 }
  - { offset: 0x4BC3, size: 0x8, addend: 0x0, symName: __ZNSt3__118__constexpr_strlenB8ne180100EPKc, symObjAddr: 0x1E40, symBinAddr: 0x100002B10, symSize: 0x20 }
  - { offset: 0x6675, size: 0x8, addend: 0x0, symName: __ZN4CardC2Ev, symObjAddr: 0x0, symBinAddr: 0x100000CD0, symSize: 0x20 }
  - { offset: 0x669F, size: 0x8, addend: 0x0, symName: __ZN4CardC1Ev, symObjAddr: 0x20, symBinAddr: 0x100000CF0, symSize: 0x20 }
  - { offset: 0x66C9, size: 0x8, addend: 0x0, symName: __ZN4CardC2E4Rank4Suit, symObjAddr: 0x40, symBinAddr: 0x100000D10, symSize: 0x20 }
  - { offset: 0x670F, size: 0x8, addend: 0x0, symName: __ZN4CardC1E4Rank4Suit, symObjAddr: 0x60, symBinAddr: 0x100000D30, symSize: 0x30 }
  - { offset: 0x6755, size: 0x8, addend: 0x0, symName: __ZNK4Card8get_rankEv, symObjAddr: 0x90, symBinAddr: 0x100000D60, symSize: 0x10 }
  - { offset: 0x677B, size: 0x8, addend: 0x0, symName: __ZNK4Card8get_suitEv, symObjAddr: 0xA0, symBinAddr: 0x100000D70, symSize: 0x20 }
  - { offset: 0x67A1, size: 0x8, addend: 0x0, symName: __ZNK4Card8get_suitE4Suit, symObjAddr: 0xC0, symBinAddr: 0x100000D90, symSize: 0x50 }
  - { offset: 0x67D5, size: 0x8, addend: 0x0, symName: __ZNK4Card13is_left_bowerE4Suit, symObjAddr: 0x110, symBinAddr: 0x100000DE0, symSize: 0x70 }
  - { offset: 0x6809, size: 0x8, addend: 0x0, symName: __ZNK4Card14is_face_or_aceEv, symObjAddr: 0x180, symBinAddr: 0x100000E50, symSize: 0x60 }
  - { offset: 0x682F, size: 0x8, addend: 0x0, symName: __ZNK4Card14is_right_bowerE4Suit, symObjAddr: 0x1E0, symBinAddr: 0x100000EB0, symSize: 0x50 }
  - { offset: 0x6863, size: 0x8, addend: 0x0, symName: __Z9Suit_next4Suit, symObjAddr: 0x230, symBinAddr: 0x100000F00, symSize: 0xA0 }
  - { offset: 0x688F, size: 0x8, addend: 0x0, symName: __ZNK4Card8is_trumpE4Suit, symObjAddr: 0x2D0, symBinAddr: 0x100000FA0, symSize: 0x70 }
  - { offset: 0x68C3, size: 0x8, addend: 0x0, symName: __ZNSt3__113basic_ostreamIcNS_11char_traitsIcEEElsB8ne180100EPFRS3_S4_E, symObjAddr: 0x380, symBinAddr: 0x100001050, symSize: 0x20 }
  - { offset: 0x68F5, size: 0x8, addend: 0x0, symName: __Z9Card_lessRK4CardS1_4Suit, symObjAddr: 0x3F0, symBinAddr: 0x1000010C0, symSize: 0x1A0 }
  - { offset: 0x693D, size: 0x8, addend: 0x0, symName: __ZltRK4CardS1_, symObjAddr: 0x590, symBinAddr: 0x100001260, symSize: 0xB0 }
  - { offset: 0x6977, size: 0x8, addend: 0x0, symName: __Z9Card_lessRK4CardS1_S1_4Suit, symObjAddr: 0x640, symBinAddr: 0x100001310, symSize: 0x2C0 }
  - { offset: 0x69CD, size: 0x8, addend: 0x0, symName: __ZleRK4CardS1_, symObjAddr: 0x900, symBinAddr: 0x1000015D0, symSize: 0x70 }
  - { offset: 0x6A07, size: 0x8, addend: 0x0, symName: __ZgtRK4CardS1_, symObjAddr: 0x970, symBinAddr: 0x100001640, symSize: 0x80 }
  - { offset: 0x6A41, size: 0x8, addend: 0x0, symName: __ZgeRK4CardS1_, symObjAddr: 0x9F0, symBinAddr: 0x1000016C0, symSize: 0x70 }
  - { offset: 0x6A7B, size: 0x8, addend: 0x0, symName: __ZeqRK4CardS1_, symObjAddr: 0xA60, symBinAddr: 0x100001730, symSize: 0x70 }
  - { offset: 0x6AB5, size: 0x8, addend: 0x0, symName: __ZneRK4CardS1_, symObjAddr: 0xAD0, symBinAddr: 0x1000017A0, symSize: 0x70 }
  - { offset: 0x6AEF, size: 0x8, addend: 0x0, symName: __ZlsRNSt3__113basic_ostreamIcNS_11char_traitsIcEEEERK4Card, symObjAddr: 0xB40, symBinAddr: 0x100001810, symSize: 0x60 }
  - { offset: 0x6B29, size: 0x8, addend: 0x0, symName: __ZlsRNSt3__113basic_ostreamIcNS_11char_traitsIcEEEE4Suit, symObjAddr: 0xBA0, symBinAddr: 0x100001870, symSize: 0x40 }
  - { offset: 0x6B66, size: 0x8, addend: 0x0, symName: __ZlsRNSt3__113basic_ostreamIcNS_11char_traitsIcEEEE4Rank, symObjAddr: 0xBE0, symBinAddr: 0x1000018B0, symSize: 0x40 }
  - { offset: 0x6BA3, size: 0x8, addend: 0x0, symName: __ZrsRNSt3__113basic_istreamIcNS_11char_traitsIcEEEER4Card, symObjAddr: 0xC20, symBinAddr: 0x1000018F0, symSize: 0x140 }
  - { offset: 0x6C29, size: 0x8, addend: 0x0, symName: __ZNSt3__112basic_stringIcNS_11char_traitsIcEENS_9allocatorIcEEEC1B8ne180100Ev, symObjAddr: 0xD60, symBinAddr: 0x100001A30, symSize: 0x20 }
  - { offset: 0x6C51, size: 0x8, addend: 0x0, symName: __Z14string_to_rankRKNSt3__112basic_stringIcNS_11char_traitsIcEENS_9allocatorIcEEEE, symObjAddr: 0x1060, symBinAddr: 0x100001D30, symSize: 0x70 }
  - { offset: 0x6C9C, size: 0x8, addend: 0x0, symName: __Z14string_to_suitRKNSt3__112basic_stringIcNS_11char_traitsIcEENS_9allocatorIcEEEE, symObjAddr: 0x10D0, symBinAddr: 0x100001DA0, symSize: 0xA0 }
  - { offset: 0x6CE7, size: 0x8, addend: 0x0, symName: __ZrsRNSt3__113basic_istreamIcNS_11char_traitsIcEEEER4Rank, symObjAddr: 0x1200, symBinAddr: 0x100001ED0, symSize: 0xC0 }
  - { offset: 0x6D33, size: 0x8, addend: 0x0, symName: __ZNKSt3__19basic_iosIcNS_11char_traitsIcEEEcvbB8ne180100Ev, symObjAddr: 0x12C0, symBinAddr: 0x100001F90, symSize: 0x30 }
  - { offset: 0x6D57, size: 0x8, addend: 0x0, symName: __ZrsRNSt3__113basic_istreamIcNS_11char_traitsIcEEEER4Suit, symObjAddr: 0x12F0, symBinAddr: 0x100001FC0, symSize: 0xC0 }
  - { offset: 0x6DA3, size: 0x8, addend: 0x0, symName: __ZNSt3__111char_traitsIcE6lengthB8ne180100EPKc, symObjAddr: 0x15A0, symBinAddr: 0x100002270, symSize: 0x30 }
  - { offset: 0x6DE3, size: 0x8, addend: 0x0, symName: __ZNKSt3__113basic_ostreamIcNS_11char_traitsIcEEE6sentrycvbB8ne180100Ev, symObjAddr: 0x15D0, symBinAddr: 0x1000022A0, symSize: 0x20 }
  - { offset: 0x6E07, size: 0x8, addend: 0x0, symName: __ZNSt3__119ostreambuf_iteratorIcNS_11char_traitsIcEEEC1B8ne180100ERNS_13basic_ostreamIcS2_EE, symObjAddr: 0x1810, symBinAddr: 0x1000024E0, symSize: 0x30 }
  - { offset: 0x6E3D, size: 0x8, addend: 0x0, symName: __ZNKSt3__18ios_base5flagsB8ne180100Ev, symObjAddr: 0x1840, symBinAddr: 0x100002510, symSize: 0x20 }
  - { offset: 0x6E63, size: 0x8, addend: 0x0, symName: __ZNKSt3__19basic_iosIcNS_11char_traitsIcEEE4fillB8ne180100Ev, symObjAddr: 0x1860, symBinAddr: 0x100002530, symSize: 0x70 }
  - { offset: 0x6E89, size: 0x8, addend: 0x0, symName: __ZNKSt3__119ostreambuf_iteratorIcNS_11char_traitsIcEEE6failedB8ne180100Ev, symObjAddr: 0x18D0, symBinAddr: 0x1000025A0, symSize: 0x20 }
  - { offset: 0x6EAD, size: 0x8, addend: 0x0, symName: __ZNSt3__19basic_iosIcNS_11char_traitsIcEEE8setstateB8ne180100Ej, symObjAddr: 0x18F0, symBinAddr: 0x1000025C0, symSize: 0x30 }
  - { offset: 0x6EE0, size: 0x8, addend: 0x0, symName: __ZNKSt3__18ios_base5widthB8ne180100Ev, symObjAddr: 0x1930, symBinAddr: 0x100002600, symSize: 0x20 }
  - { offset: 0x6F06, size: 0x8, addend: 0x0, symName: __ZNSt3__115basic_streambufIcNS_11char_traitsIcEEE5sputnB8ne180100EPKcl, symObjAddr: 0x1950, symBinAddr: 0x100002620, symSize: 0x30 }
  - { offset: 0x6F46, size: 0x8, addend: 0x0, symName: __ZNSt3__112basic_stringIcNS_11char_traitsIcEENS_9allocatorIcEEEC1B8ne180100Emc, symObjAddr: 0x1980, symBinAddr: 0x100002650, symSize: 0x30 }
  - { offset: 0x6F8C, size: 0x8, addend: 0x0, symName: __ZNSt3__112basic_stringIcNS_11char_traitsIcEENS_9allocatorIcEEE4dataB8ne180100Ev, symObjAddr: 0x19B0, symBinAddr: 0x100002680, symSize: 0x30 }
  - { offset: 0x6FB0, size: 0x8, addend: 0x0, symName: __ZNSt3__18ios_base5widthB8ne180100El, symObjAddr: 0x19E0, symBinAddr: 0x1000026B0, symSize: 0x30 }
  - { offset: 0x6FF4, size: 0x8, addend: 0x0, symName: __ZNSt3__112basic_stringIcNS_11char_traitsIcEENS_9allocatorIcEEEC2B8ne180100Emc, symObjAddr: 0x1A10, symBinAddr: 0x1000026E0, symSize: 0x50 }
  - { offset: 0x703F, size: 0x8, addend: 0x0, symName: __ZNSt3__117__compressed_pairINS_12basic_stringIcNS_11char_traitsIcEENS_9allocatorIcEEE5__repES5_EC1B8ne180100INS_18__default_init_tagESA_EEOT_OT0_, symObjAddr: 0x1A60, symBinAddr: 0x100002730, symSize: 0x30 }
  - { offset: 0x7095, size: 0x8, addend: 0x0, symName: __ZNSt3__117__compressed_pairINS_12basic_stringIcNS_11char_traitsIcEENS_9allocatorIcEEE5__repES5_EC2B8ne180100INS_18__default_init_tagESA_EEOT_OT0_, symObjAddr: 0x1A90, symBinAddr: 0x100002760, symSize: 0x30 }
  - { offset: 0x70EB, size: 0x8, addend: 0x0, symName: __ZNSt3__122__compressed_pair_elemINS_12basic_stringIcNS_11char_traitsIcEENS_9allocatorIcEEE5__repELi0ELb0EEC2B8ne180100ENS_18__default_init_tagE, symObjAddr: 0x1AC0, symBinAddr: 0x100002790, symSize: 0x10 }
  - { offset: 0x711D, size: 0x8, addend: 0x0, symName: __ZNSt3__122__compressed_pair_elemINS_9allocatorIcEELi1ELb1EEC2B8ne180100ENS_18__default_init_tagE, symObjAddr: 0x1AD0, symBinAddr: 0x1000027A0, symSize: 0x20 }
  - { offset: 0x714F, size: 0x8, addend: 0x0, symName: __ZNSt3__19allocatorIcEC2B8ne180100Ev, symObjAddr: 0x1AF0, symBinAddr: 0x1000027C0, symSize: 0x20 }
  - { offset: 0x7177, size: 0x8, addend: 0x0, symName: __ZNSt3__116__non_trivial_ifILb1ENS_9allocatorIcEEEC2B8ne180100Ev, symObjAddr: 0x1B10, symBinAddr: 0x1000027E0, symSize: 0x10 }
  - { offset: 0x719F, size: 0x8, addend: 0x0, symName: __ZNSt3__112basic_stringIcNS_11char_traitsIcEENS_9allocatorIcEEE13__get_pointerB8ne180100Ev, symObjAddr: 0x1B30, symBinAddr: 0x100002800, symSize: 0x50 }
  - { offset: 0x71C3, size: 0x8, addend: 0x0, symName: __ZNKSt3__112basic_stringIcNS_11char_traitsIcEENS_9allocatorIcEEE9__is_longB8ne180100Ev, symObjAddr: 0x1B80, symBinAddr: 0x100002850, symSize: 0x30 }
  - { offset: 0x71E7, size: 0x8, addend: 0x0, symName: __ZNSt3__112basic_stringIcNS_11char_traitsIcEENS_9allocatorIcEEE18__get_long_pointerB8ne180100Ev, symObjAddr: 0x1BB0, symBinAddr: 0x100002880, symSize: 0x20 }
  - { offset: 0x720B, size: 0x8, addend: 0x0, symName: __ZNSt3__112basic_stringIcNS_11char_traitsIcEENS_9allocatorIcEEE19__get_short_pointerB8ne180100Ev, symObjAddr: 0x1BD0, symBinAddr: 0x1000028A0, symSize: 0x30 }
  - { offset: 0x722F, size: 0x8, addend: 0x0, symName: __ZNKSt3__117__compressed_pairINS_12basic_stringIcNS_11char_traitsIcEENS_9allocatorIcEEE5__repES5_E5firstB8ne180100Ev, symObjAddr: 0x1C00, symBinAddr: 0x1000028D0, symSize: 0x20 }
  - { offset: 0x7253, size: 0x8, addend: 0x0, symName: __ZNKSt3__122__compressed_pair_elemINS_12basic_stringIcNS_11char_traitsIcEENS_9allocatorIcEEE5__repELi0ELb0EE5__getB8ne180100Ev, symObjAddr: 0x1C20, symBinAddr: 0x1000028F0, symSize: 0x10 }
  - { offset: 0x7277, size: 0x8, addend: 0x0, symName: __ZNSt3__117__compressed_pairINS_12basic_stringIcNS_11char_traitsIcEENS_9allocatorIcEEE5__repES5_E5firstB8ne180100Ev, symObjAddr: 0x1C30, symBinAddr: 0x100002900, symSize: 0x20 }
  - { offset: 0x729B, size: 0x8, addend: 0x0, symName: __ZNSt3__122__compressed_pair_elemINS_12basic_stringIcNS_11char_traitsIcEENS_9allocatorIcEEE5__repELi0ELb0EE5__getB8ne180100Ev, symObjAddr: 0x1C50, symBinAddr: 0x100002920, symSize: 0x10 }
  - { offset: 0x72BF, size: 0x8, addend: 0x0, symName: __ZNSt3__114pointer_traitsIPcE10pointer_toB8ne180100ERc, symObjAddr: 0x1C60, symBinAddr: 0x100002930, symSize: 0x10 }
  - { offset: 0x72E1, size: 0x8, addend: 0x0, symName: __ZNSt3__119ostreambuf_iteratorIcNS_11char_traitsIcEEEC2B8ne180100ERNS_13basic_ostreamIcS2_EE, symObjAddr: 0x1C70, symBinAddr: 0x100002940, symSize: 0x50 }
  - { offset: 0x7317, size: 0x8, addend: 0x0, symName: __ZNKSt3__19basic_iosIcNS_11char_traitsIcEEE5rdbufB8ne180100Ev, symObjAddr: 0x1CC0, symBinAddr: 0x100002990, symSize: 0x20 }
  - { offset: 0x733D, size: 0x8, addend: 0x0, symName: __ZNKSt3__18ios_base5rdbufB8ne180100Ev, symObjAddr: 0x1CE0, symBinAddr: 0x1000029B0, symSize: 0x20 }
  - { offset: 0x7361, size: 0x8, addend: 0x0, symName: __ZNSt3__111char_traitsIcE11eq_int_typeB8ne180100Eii, symObjAddr: 0x1D00, symBinAddr: 0x1000029D0, symSize: 0x20 }
  - { offset: 0x7393, size: 0x8, addend: 0x0, symName: __ZNSt3__111char_traitsIcE3eofB8ne180100Ev, symObjAddr: 0x1D20, symBinAddr: 0x1000029F0, symSize: 0x10 }
  - { offset: 0x73A6, size: 0x8, addend: 0x0, symName: __ZNKSt3__19basic_iosIcNS_11char_traitsIcEEE5widenB8ne180100Ec, symObjAddr: 0x1D30, symBinAddr: 0x100002A00, symSize: 0x80 }
  - { offset: 0x7408, size: 0x8, addend: 0x0, symName: __ZNKSt3__15ctypeIcE5widenB8ne180100Ec, symObjAddr: 0x1DE0, symBinAddr: 0x100002AB0, symSize: 0x30 }
  - { offset: 0x743B, size: 0x8, addend: 0x0, symName: __ZNSt3__18ios_base8setstateB8ne180100Ej, symObjAddr: 0x1E10, symBinAddr: 0x100002AE0, symSize: 0x30 }
  - { offset: 0x7470, size: 0x8, addend: 0x0, symName: __ZNSt3__112basic_stringIcNS_11char_traitsIcEENS_9allocatorIcEEEC2B8ne180100Ev, symObjAddr: 0x1E60, symBinAddr: 0x100002B30, symSize: 0x50 }
  - { offset: 0x749D, size: 0x8, addend: 0x0, symName: __ZNSt3__117__compressed_pairINS_12basic_stringIcNS_11char_traitsIcEENS_9allocatorIcEEE5__repES5_EC1B8ne180100INS_16__value_init_tagENS_18__default_init_tagEEEOT_OT0_, symObjAddr: 0x1EB0, symBinAddr: 0x100002B80, symSize: 0x30 }
  - { offset: 0x74F3, size: 0x8, addend: 0x0, symName: __ZNKSt3__112basic_stringIcNS_11char_traitsIcEENS_9allocatorIcEEE14__annotate_newB8ne180100Em, symObjAddr: 0x1EE0, symBinAddr: 0x100002BB0, symSize: 0x10 }
  - { offset: 0x7526, size: 0x8, addend: 0x0, symName: __ZNSt3__117__compressed_pairINS_12basic_stringIcNS_11char_traitsIcEENS_9allocatorIcEEE5__repES5_EC2B8ne180100INS_16__value_init_tagENS_18__default_init_tagEEEOT_OT0_, symObjAddr: 0x1EF0, symBinAddr: 0x100002BC0, symSize: 0x30 }
  - { offset: 0x757C, size: 0x8, addend: 0x0, symName: __ZNSt3__122__compressed_pair_elemINS_12basic_stringIcNS_11char_traitsIcEENS_9allocatorIcEEE5__repELi0ELb0EEC2B8ne180100ENS_16__value_init_tagE, symObjAddr: 0x1F20, symBinAddr: 0x100002BF0, symSize: 0x30 }
  - { offset: 0x7640, size: 0x8, addend: 0x0, symName: __ZNKSt3__113basic_istreamIcNS_11char_traitsIcEEE6sentrycvbB8ne180100Ev, symObjAddr: 0x1F50, symBinAddr: 0x100002C20, symSize: 0x20 }
  - { offset: 0x7664, size: 0x8, addend: 0x0, symName: __ZNSt3__112basic_stringIcNS_11char_traitsIcEENS_9allocatorIcEEE5clearB8ne180100Ev, symObjAddr: 0x1F70, symBinAddr: 0x100002C40, symSize: 0xA0 }
  - { offset: 0x7699, size: 0x8, addend: 0x0, symName: __ZNKSt3__112basic_stringIcNS_11char_traitsIcEENS_9allocatorIcEEE8max_sizeB8ne180100Ev, symObjAddr: 0x2010, symBinAddr: 0x100002CE0, symSize: 0xA0 }
  - { offset: 0x76E9, size: 0x8, addend: 0x0, symName: __ZNSt3__114numeric_limitsIlE3maxB8ne180100Ev, symObjAddr: 0x20B0, symBinAddr: 0x100002D80, symSize: 0x10 }
  - { offset: 0x76FC, size: 0x8, addend: 0x0, symName: __ZNSt3__115basic_streambufIcNS_11char_traitsIcEEE5sgetcB8ne180100Ev, symObjAddr: 0x20C0, symBinAddr: 0x100002D90, symSize: 0x50 }
  - { offset: 0x7720, size: 0x8, addend: 0x0, symName: __ZNSt3__111char_traitsIcE12to_char_typeB8ne180100Ei, symObjAddr: 0x2110, symBinAddr: 0x100002DE0, symSize: 0x10 }
  - { offset: 0x7743, size: 0x8, addend: 0x0, symName: __ZNKSt3__15ctypeIcE2isB8ne180100Ejc, symObjAddr: 0x2120, symBinAddr: 0x100002DF0, symSize: 0x70 }
  - { offset: 0x7785, size: 0x8, addend: 0x0, symName: __ZNSt3__115basic_streambufIcNS_11char_traitsIcEEE6sbumpcB8ne180100Ev, symObjAddr: 0x2190, symBinAddr: 0x100002E60, symSize: 0x60 }
  - { offset: 0x77A9, size: 0x8, addend: 0x0, symName: __ZNSt3__18ios_base18__setstate_nothrowB8ne180100Ej, symObjAddr: 0x21F0, symBinAddr: 0x100002EC0, symSize: 0x50 }
  - { offset: 0x77DC, size: 0x8, addend: 0x0, symName: __ZNKSt3__19basic_iosIcNS_11char_traitsIcEEE10exceptionsB8ne180100Ev, symObjAddr: 0x2240, symBinAddr: 0x100002F10, symSize: 0x20 }
  - { offset: 0x7800, size: 0x8, addend: 0x0, symName: __ZNKSt3__112basic_stringIcNS_11char_traitsIcEENS_9allocatorIcEEE4sizeB8ne180100Ev, symObjAddr: 0x2260, symBinAddr: 0x100002F30, symSize: 0x50 }
  - { offset: 0x7824, size: 0x8, addend: 0x0, symName: __ZNSt3__111char_traitsIcE6assignB8ne180100ERcRKc, symObjAddr: 0x22B0, symBinAddr: 0x100002F80, symSize: 0x20 }
  - { offset: 0x7854, size: 0x8, addend: 0x0, symName: __ZNSt3__112basic_stringIcNS_11char_traitsIcEENS_9allocatorIcEEE15__set_long_sizeB8ne180100Em, symObjAddr: 0x22D0, symBinAddr: 0x100002FA0, symSize: 0x30 }
  - { offset: 0x7887, size: 0x8, addend: 0x0, symName: __ZNSt3__112basic_stringIcNS_11char_traitsIcEENS_9allocatorIcEEE16__set_short_sizeB8ne180100Em, symObjAddr: 0x2300, symBinAddr: 0x100002FD0, symSize: 0x50 }
  - { offset: 0x78BA, size: 0x8, addend: 0x0, symName: __ZNKSt3__112basic_stringIcNS_11char_traitsIcEENS_9allocatorIcEEE17__annotate_shrinkB8ne180100Em, symObjAddr: 0x2350, symBinAddr: 0x100003020, symSize: 0x10 }
  - { offset: 0x78ED, size: 0x8, addend: 0x0, symName: __ZNKSt3__112basic_stringIcNS_11char_traitsIcEENS_9allocatorIcEEE15__get_long_sizeB8ne180100Ev, symObjAddr: 0x2360, symBinAddr: 0x100003030, symSize: 0x20 }
  - { offset: 0x7911, size: 0x8, addend: 0x0, symName: __ZNKSt3__112basic_stringIcNS_11char_traitsIcEENS_9allocatorIcEEE16__get_short_sizeB8ne180100Ev, symObjAddr: 0x2380, symBinAddr: 0x100003050, symSize: 0x30 }
  - { offset: 0x793F, size: 0x8, addend: 0x0, symName: __ZNSt3__116allocator_traitsINS_9allocatorIcEEE8max_sizeB8ne180100IS2_vEEmRKS2_, symObjAddr: 0x23B0, symBinAddr: 0x100003080, symSize: 0x20 }
  - { offset: 0x796C, size: 0x8, addend: 0x0, symName: __ZNKSt3__112basic_stringIcNS_11char_traitsIcEENS_9allocatorIcEEE7__allocB8ne180100Ev, symObjAddr: 0x23D0, symBinAddr: 0x1000030A0, symSize: 0x20 }
  - { offset: 0x7990, size: 0x8, addend: 0x0, symName: __ZNSt3__114numeric_limitsImE3maxB8ne180100Ev, symObjAddr: 0x23F0, symBinAddr: 0x1000030C0, symSize: 0x10 }
  - { offset: 0x79A3, size: 0x8, addend: 0x0, symName: __ZNKSt3__19allocatorIcE8max_sizeB8ne180100Ev, symObjAddr: 0x2400, symBinAddr: 0x1000030D0, symSize: 0x20 }
  - { offset: 0x79C7, size: 0x8, addend: 0x0, symName: __ZNKSt3__117__compressed_pairINS_12basic_stringIcNS_11char_traitsIcEENS_9allocatorIcEEE5__repES5_E6secondB8ne180100Ev, symObjAddr: 0x2420, symBinAddr: 0x1000030F0, symSize: 0x20 }
  - { offset: 0x79EB, size: 0x8, addend: 0x0, symName: __ZNKSt3__122__compressed_pair_elemINS_9allocatorIcEELi1ELb1EE5__getB8ne180100Ev, symObjAddr: 0x2440, symBinAddr: 0x100003110, symSize: 0x10 }
  - { offset: 0x7A0F, size: 0x8, addend: 0x0, symName: __ZNSt3__123__libcpp_numeric_limitsImLb1EE3maxB8ne180100Ev, symObjAddr: 0x2450, symBinAddr: 0x100003120, symSize: 0x10 }
  - { offset: 0x7A22, size: 0x8, addend: 0x0, symName: __ZNSt3__123__libcpp_numeric_limitsIlLb1EE3maxB8ne180100Ev, symObjAddr: 0x2460, symBinAddr: 0x100003130, symSize: 0x10 }
  - { offset: 0x7A35, size: 0x8, addend: 0x0, symName: __ZNSt3__111char_traitsIcE11to_int_typeB8ne180100Ec, symObjAddr: 0x2470, symBinAddr: 0x100003140, symSize: 0x10 }
  - { offset: 0x7A58, size: 0x8, addend: 0x0, symName: __Z7isasciii, symObjAddr: 0x2480, symBinAddr: 0x100003150, symSize: 0x20 }
  - { offset: 0x7A84, size: 0x8, addend: 0x0, symName: __ZNKSt3__18ios_base10exceptionsB8ne180100Ev, symObjAddr: 0x24A0, symBinAddr: 0x100003170, symSize: 0x20 }
  - { offset: 0x7AAA, size: 0x8, addend: 0x0, symName: __ZNKSt3__19basic_iosIcNS_11char_traitsIcEEE4failB8ne180100Ev, symObjAddr: 0x24C0, symBinAddr: 0x100003190, symSize: 0x20 }
  - { offset: 0x7ACE, size: 0x8, addend: 0x0, symName: __ZNKSt3__18ios_base4failB8ne180100Ev, symObjAddr: 0x24E0, symBinAddr: 0x1000031B0, symSize: 0x1F }
  - { offset: 0xEE60, size: 0x8, addend: 0x0, symName: __ZNSt3__112__to_addressB8ne180100I4CardEEPT_S3_, symObjAddr: 0x9D0, symBinAddr: 0x100003B20, symSize: 0x10 }
  - { offset: 0xEE96, size: 0x8, addend: 0x0, symName: __ZNSt3__119__libcpp_deallocateB8ne180100EPvmm, symObjAddr: 0xA30, symBinAddr: 0x100003B80, symSize: 0x60 }
  - { offset: 0xEEFB, size: 0x8, addend: 0x0, symName: __ZNSt3__124__is_overaligned_for_newB8ne180100Em, symObjAddr: 0xA90, symBinAddr: 0x100003BE0, symSize: 0x20 }
  - { offset: 0xEF2A, size: 0x8, addend: 0x0, symName: __ZNSt3__127__do_deallocate_handle_sizeB8ne180100IJSt11align_val_tEEEvPvmDpT_, symObjAddr: 0xAB0, symBinAddr: 0x100003C00, symSize: 0x30 }
  - { offset: 0xEF80, size: 0x8, addend: 0x0, symName: __ZNSt3__127__do_deallocate_handle_sizeB8ne180100IJEEEvPvmDpT_, symObjAddr: 0xAE0, symBinAddr: 0x100003C30, symSize: 0x20 }
  - { offset: 0xEFC0, size: 0x8, addend: 0x0, symName: __ZNSt3__124__libcpp_operator_deleteB8ne180100IJPvSt11align_val_tEEEvDpT_, symObjAddr: 0xB00, symBinAddr: 0x100003C50, symSize: 0x30 }
  - { offset: 0xF00D, size: 0x8, addend: 0x0, symName: __ZNSt3__124__libcpp_operator_deleteB8ne180100IJPvEEEvDpT_, symObjAddr: 0xB30, symBinAddr: 0x100003C80, symSize: 0x20 }
  - { offset: 0xF044, size: 0x8, addend: 0x0, symName: __ZNSt3__13maxB8ne180100ImEERKT_S3_S3_, symObjAddr: 0x1140, symBinAddr: 0x100004290, symSize: 0x30 }
  - { offset: 0xF087, size: 0x8, addend: 0x0, symName: __ZNSt3__13minB8ne180100ImEERKT_S3_S3_, symObjAddr: 0x1170, symBinAddr: 0x1000042C0, symSize: 0x30 }
  - { offset: 0xF0CA, size: 0x8, addend: 0x0, symName: __ZNSt3__13minB8ne180100ImNS_6__lessIvvEEEERKT_S5_S5_T0_, symObjAddr: 0x11F0, symBinAddr: 0x100004330, symSize: 0x50 }
  - { offset: 0xF16C, size: 0x8, addend: 0x0, symName: __ZNSt3__120__throw_length_errorB8ne180100EPKc, symObjAddr: 0x12D0, symBinAddr: 0x100004400, symSize: 0x70 }
  - { offset: 0xF194, size: 0x8, addend: 0x0, symName: __ZNSt3__13maxB8ne180100ImNS_6__lessIvvEEEERKT_S5_S5_T0_, symObjAddr: 0x13B0, symBinAddr: 0x1000044E0, symSize: 0x50 }
  - { offset: 0xF1EE, size: 0x8, addend: 0x0, symName: __ZNSt3__119__allocate_at_leastB8ne180100INS_9allocatorI4CardEEEENS_19__allocation_resultINS_16allocator_traitsIT_E7pointerEEERS6_m, symObjAddr: 0x1500, symBinAddr: 0x100004630, symSize: 0x40 }
  - { offset: 0xF231, size: 0x8, addend: 0x0, symName: __ZNSt3__117__libcpp_allocateB8ne180100Emm, symObjAddr: 0x1670, symBinAddr: 0x1000047A0, symSize: 0x60 }
  - { offset: 0xF28B, size: 0x8, addend: 0x0, symName: __ZNSt3__121__libcpp_operator_newB8ne180100IJmSt11align_val_tEEEPvDpT_, symObjAddr: 0x16D0, symBinAddr: 0x100004800, symSize: 0x30 }
  - { offset: 0xF2DB, size: 0x8, addend: 0x0, symName: __ZNSt3__121__libcpp_operator_newB8ne180100IJmEEEPvDpT_, symObjAddr: 0x1700, symBinAddr: 0x100004830, symSize: 0x20 }
  - { offset: 0xF316, size: 0x8, addend: 0x0, symName: __ZNSt3__142__uninitialized_allocator_move_if_noexceptB8ne180100INS_9allocatorI4CardEENS_16reverse_iteratorIPS2_EES6_S2_vEET1_RT_T0_SA_S7_, symObjAddr: 0x1780, symBinAddr: 0x1000048B0, symSize: 0x70 }
  - { offset: 0xF393, size: 0x8, addend: 0x0, symName: __ZNSt3__14swapB8ne180100IP4CardEENS_9enable_ifIXaasr21is_move_constructibleIT_EE5valuesr18is_move_assignableIS4_EE5valueEvE4typeERS4_S7_, symObjAddr: 0x1840, symBinAddr: 0x100004970, symSize: 0x40 }
  - { offset: 0xF3E4, size: 0x8, addend: 0x0, symName: __ZNSt3__14moveB8ne180100INS_16reverse_iteratorIP4CardEES4_EET0_T_S6_S5_, symObjAddr: 0x1890, symBinAddr: 0x1000049C0, symSize: 0x80 }
  - { offset: 0xF43E, size: 0x8, addend: 0x0, symName: __ZNSt3__16__moveB8ne180100INS_17_ClassicAlgPolicyENS_16reverse_iteratorIP4CardEES5_S5_EENS_4pairIT0_T2_EES7_T1_S8_, symObjAddr: 0x1910, symBinAddr: 0x100004A40, symSize: 0x90 }
  - { offset: 0xF4AA, size: 0x8, addend: 0x0, symName: __ZNSt3__123__dispatch_copy_or_moveB8ne180100INS_17_ClassicAlgPolicyENS_11__move_loopIS1_EENS_14__move_trivialENS_16reverse_iteratorIP4CardEES8_S8_EENS_4pairIT2_T4_EESA_T3_SB_, symObjAddr: 0x19A0, symBinAddr: 0x100004AD0, symSize: 0x90 }
  - { offset: 0xF528, size: 0x8, addend: 0x0, symName: __ZNSt3__121__unwrap_and_dispatchB8ne180100INS_10__overloadINS_11__move_loopINS_17_ClassicAlgPolicyEEENS_14__move_trivialEEENS_16reverse_iteratorIP4CardEESA_SA_Li0EEENS_4pairIT0_T2_EESC_T1_SD_, symObjAddr: 0x1A30, symBinAddr: 0x100004B60, symSize: 0x210 }
  - { offset: 0xF5B8, size: 0x8, addend: 0x0, symName: __ZNSt3__114__unwrap_rangeB8ne180100INS_16reverse_iteratorIP4CardEES4_EENS_4pairIT0_S6_EET_S8_, symObjAddr: 0x1C40, symBinAddr: 0x100004D70, symSize: 0x90 }
  - { offset: 0xF734, size: 0x8, addend: 0x0, symName: __ZNSt3__113__unwrap_iterB8ne180100INS_16reverse_iteratorIP4CardEENS_18__unwrap_iter_implIS4_Lb0EEELi0EEEDTclsrT0_8__unwrapclsr3stdE7declvalIT_EEEES8_, symObjAddr: 0x1D70, symBinAddr: 0x100004EA0, symSize: 0x40 }
  - { offset: 0xF779, size: 0x8, addend: 0x0, symName: __ZNSt3__19make_pairB8ne180100INS_16reverse_iteratorIP4CardEES4_EENS_4pairINS_18__unwrap_ref_decayIT_E4typeENS6_IT0_E4typeEEEOS7_OSA_, symObjAddr: 0x1DB0, symBinAddr: 0x100004EE0, symSize: 0x30 }
  - { offset: 0xF7C8, size: 0x8, addend: 0x0, symName: __ZNSt3__114__rewrap_rangeB8ne180100INS_16reverse_iteratorIP4CardEES4_EET_S5_T0_, symObjAddr: 0x1DE0, symBinAddr: 0x100004F10, symSize: 0x60 }
  - { offset: 0xF814, size: 0x8, addend: 0x0, symName: __ZNSt3__113__rewrap_iterB8ne180100INS_16reverse_iteratorIP4CardEES4_NS_18__unwrap_iter_implIS4_Lb0EEEEET_S7_T0_, symObjAddr: 0x1E40, symBinAddr: 0x100004F70, symSize: 0x70 }
  - { offset: 0xF869, size: 0x8, addend: 0x0, symName: __ZNSt3__1neB8ne180100IP4CardS2_EEbRKNS_16reverse_iteratorIT_EERKNS3_IT0_EE, symObjAddr: 0x1EB0, symBinAddr: 0x100004FE0, symSize: 0x40 }
  - { offset: 0x10716, size: 0x8, addend: 0x0, symName: __ZSt28__throw_bad_array_new_lengthB8ne180100v, symObjAddr: 0x1630, symBinAddr: 0x100004760, symSize: 0x40 }
  - { offset: 0x10AC3, size: 0x8, addend: 0x0, symName: __ZNSt3__16vectorI4CardNS_9allocatorIS1_EEE26__swap_out_circular_bufferERNS_14__split_bufferIS1_RS3_EE, symObjAddr: 0xF80, symBinAddr: 0x1000040D0, symSize: 0x120 }
  - { offset: 0x10D16, size: 0x8, addend: 0x0, symName: __ZN4PackC2Ev, symObjAddr: 0x0, symBinAddr: 0x1000031D0, symSize: 0xB0 }
  - { offset: 0x10DDA, size: 0x8, addend: 0x0, symName: __ZNSt3__15arrayI4CardLm24EEC1Ev, symObjAddr: 0xB0, symBinAddr: 0x100003280, symSize: 0x20 }
  - { offset: 0x10E04, size: 0x8, addend: 0x0, symName: __ZNSt3__15arrayI4CardLm24EEixB8ne180100Em, symObjAddr: 0xD0, symBinAddr: 0x1000032A0, symSize: 0x20 }
  - { offset: 0x10E36, size: 0x8, addend: 0x0, symName: __ZN4PackC1Ev, symObjAddr: 0xF0, symBinAddr: 0x1000032C0, symSize: 0x20 }
  - { offset: 0x10E60, size: 0x8, addend: 0x0, symName: __ZN4PackC2ERNSt3__113basic_istreamIcNS0_11char_traitsIcEEEE, symObjAddr: 0x110, symBinAddr: 0x1000032E0, symSize: 0xB0 }
  - { offset: 0x10EC2, size: 0x8, addend: 0x0, symName: __ZN4PackC1ERNSt3__113basic_istreamIcNS0_11char_traitsIcEEEE, symObjAddr: 0x1F0, symBinAddr: 0x100003390, symSize: 0x30 }
  - { offset: 0x10EFA, size: 0x8, addend: 0x0, symName: __ZN4Pack8deal_oneEv, symObjAddr: 0x220, symBinAddr: 0x1000033C0, symSize: 0x50 }
  - { offset: 0x10F2E, size: 0x8, addend: 0x0, symName: __ZN4Pack5resetEv, symObjAddr: 0x270, symBinAddr: 0x100003410, symSize: 0x20 }
  - { offset: 0x10F54, size: 0x8, addend: 0x0, symName: __ZN4Pack7shuffleEv, symObjAddr: 0x290, symBinAddr: 0x100003430, symSize: 0x1D0 }
  - { offset: 0x11025, size: 0x8, addend: 0x0, symName: __ZNSt3__16vectorI4CardNS_9allocatorIS1_EEEC1B8ne180100Ev, symObjAddr: 0x460, symBinAddr: 0x100003600, symSize: 0x20 }
  - { offset: 0x1104D, size: 0x8, addend: 0x0, symName: __ZNSt3__16vectorI4CardNS_9allocatorIS1_EEE9push_backB8ne180100ERKS1_, symObjAddr: 0x480, symBinAddr: 0x100003620, symSize: 0x80 }
  - { offset: 0x11091, size: 0x8, addend: 0x0, symName: __ZNSt3__16vectorI4CardNS_9allocatorIS1_EEEixB8ne180100Em, symObjAddr: 0x500, symBinAddr: 0x1000036A0, symSize: 0x20 }
  - { offset: 0x110C6, size: 0x8, addend: 0x0, symName: __ZNSt3__16vectorI4CardNS_9allocatorIS1_EEED1B8ne180100Ev, symObjAddr: 0x520, symBinAddr: 0x1000036C0, symSize: 0x20 }
  - { offset: 0x110EE, size: 0x8, addend: 0x0, symName: __ZNK4Pack5emptyEv, symObjAddr: 0x540, symBinAddr: 0x1000036E0, symSize: 0x40 }
  - { offset: 0x11114, size: 0x8, addend: 0x0, symName: __ZNKSt3__15arrayI4CardLm24EE4sizeB8ne180100Ev, symObjAddr: 0x580, symBinAddr: 0x100003720, symSize: 0x10 }
  - { offset: 0x11138, size: 0x8, addend: 0x0, symName: __ZNSt3__15arrayI4CardLm24EEC2Ev, symObjAddr: 0x590, symBinAddr: 0x100003730, symSize: 0x50 }
  - { offset: 0x11162, size: 0x8, addend: 0x0, symName: __ZNSt3__16vectorI4CardNS_9allocatorIS1_EEEC2B8ne180100Ev, symObjAddr: 0x620, symBinAddr: 0x100003780, symSize: 0x50 }
  - { offset: 0x11194, size: 0x8, addend: 0x0, symName: __ZNSt3__117__compressed_pairIP4CardNS_9allocatorIS1_EEEC1B8ne180100IDnNS_18__default_init_tagEEEOT_OT0_, symObjAddr: 0x670, symBinAddr: 0x1000037D0, symSize: 0x30 }
  - { offset: 0x111EA, size: 0x8, addend: 0x0, symName: __ZNSt3__117__compressed_pairIP4CardNS_9allocatorIS1_EEEC2B8ne180100IDnNS_18__default_init_tagEEEOT_OT0_, symObjAddr: 0x6B0, symBinAddr: 0x100003800, symSize: 0x40 }
  - { offset: 0x11240, size: 0x8, addend: 0x0, symName: __ZNSt3__122__compressed_pair_elemIP4CardLi0ELb0EEC2B8ne180100IDnvEEOT_, symObjAddr: 0x6F0, symBinAddr: 0x100003840, symSize: 0x20 }
  - { offset: 0x11280, size: 0x8, addend: 0x0, symName: __ZNSt3__122__compressed_pair_elemINS_9allocatorI4CardEELi1ELb1EEC2B8ne180100ENS_18__default_init_tagE, symObjAddr: 0x710, symBinAddr: 0x100003860, symSize: 0x20 }
  - { offset: 0x112B2, size: 0x8, addend: 0x0, symName: __ZNSt3__19allocatorI4CardEC2B8ne180100Ev, symObjAddr: 0x730, symBinAddr: 0x100003880, symSize: 0x20 }
  - { offset: 0x112DA, size: 0x8, addend: 0x0, symName: __ZNSt3__116__non_trivial_ifILb1ENS_9allocatorI4CardEEEC2B8ne180100Ev, symObjAddr: 0x750, symBinAddr: 0x1000038A0, symSize: 0x10 }
  - { offset: 0x11302, size: 0x8, addend: 0x0, symName: __ZNSt3__16vectorI4CardNS_9allocatorIS1_EEED2B8ne180100Ev, symObjAddr: 0x760, symBinAddr: 0x1000038B0, symSize: 0x40 }
  - { offset: 0x1132A, size: 0x8, addend: 0x0, symName: __ZNSt3__16vectorI4CardNS_9allocatorIS1_EEE16__destroy_vectorC1B8ne180100ERS4_, symObjAddr: 0x7A0, symBinAddr: 0x1000038F0, symSize: 0x30 }
  - { offset: 0x11361, size: 0x8, addend: 0x0, symName: __ZNSt3__16vectorI4CardNS_9allocatorIS1_EEE16__destroy_vectorclB8ne180100Ev, symObjAddr: 0x7D0, symBinAddr: 0x100003920, symSize: 0x80 }
  - { offset: 0x11385, size: 0x8, addend: 0x0, symName: __ZNSt3__16vectorI4CardNS_9allocatorIS1_EEE16__destroy_vectorC2B8ne180100ERS4_, symObjAddr: 0x850, symBinAddr: 0x1000039A0, symSize: 0x20 }
  - { offset: 0x113BC, size: 0x8, addend: 0x0, symName: __ZNSt3__16vectorI4CardNS_9allocatorIS1_EEE7__clearB8ne180100Ev, symObjAddr: 0x870, symBinAddr: 0x1000039C0, symSize: 0x20 }
  - { offset: 0x113E0, size: 0x8, addend: 0x0, symName: __ZNKSt3__16vectorI4CardNS_9allocatorIS1_EEE17__annotate_deleteB8ne180100Ev, symObjAddr: 0x890, symBinAddr: 0x1000039E0, symSize: 0x10 }
  - { offset: 0x11404, size: 0x8, addend: 0x0, symName: __ZNSt3__116allocator_traitsINS_9allocatorI4CardEEE10deallocateB8ne180100ERS3_PS2_m, symObjAddr: 0x8A0, symBinAddr: 0x1000039F0, symSize: 0x30 }
  - { offset: 0x11445, size: 0x8, addend: 0x0, symName: __ZNSt3__16vectorI4CardNS_9allocatorIS1_EEE7__allocB8ne180100Ev, symObjAddr: 0x8D0, symBinAddr: 0x100003A20, symSize: 0x20 }
  - { offset: 0x11469, size: 0x8, addend: 0x0, symName: __ZNKSt3__16vectorI4CardNS_9allocatorIS1_EEE8capacityB8ne180100Ev, symObjAddr: 0x8F0, symBinAddr: 0x100003A40, symSize: 0x30 }
  - { offset: 0x1148D, size: 0x8, addend: 0x0, symName: __ZNSt3__16vectorI4CardNS_9allocatorIS1_EEE22__base_destruct_at_endB8ne180100EPS1_, symObjAddr: 0x920, symBinAddr: 0x100003A70, symSize: 0x80 }
  - { offset: 0x114CF, size: 0x8, addend: 0x0, symName: __ZNSt3__116allocator_traitsINS_9allocatorI4CardEEE7destroyB8ne180100IS2_vEEvRS3_PT_, symObjAddr: 0x9A0, symBinAddr: 0x100003AF0, symSize: 0x30 }
  - { offset: 0x1150B, size: 0x8, addend: 0x0, symName: __ZNSt3__19allocatorI4CardE7destroyB8ne180100EPS1_, symObjAddr: 0x9E0, symBinAddr: 0x100003B30, symSize: 0x10 }
  - { offset: 0x1153D, size: 0x8, addend: 0x0, symName: __ZNSt3__19allocatorI4CardE10deallocateB8ne180100EPS1_m, symObjAddr: 0x9F0, symBinAddr: 0x100003B40, symSize: 0x40 }
  - { offset: 0x1157D, size: 0x8, addend: 0x0, symName: __ZNSt3__117__compressed_pairIP4CardNS_9allocatorIS1_EEE6secondB8ne180100Ev, symObjAddr: 0xB50, symBinAddr: 0x100003CA0, symSize: 0x20 }
  - { offset: 0x115A1, size: 0x8, addend: 0x0, symName: __ZNSt3__122__compressed_pair_elemINS_9allocatorI4CardEELi1ELb1EE5__getB8ne180100Ev, symObjAddr: 0xB70, symBinAddr: 0x100003CC0, symSize: 0x10 }
  - { offset: 0x115C5, size: 0x8, addend: 0x0, symName: __ZNKSt3__16vectorI4CardNS_9allocatorIS1_EEE9__end_capB8ne180100Ev, symObjAddr: 0xB80, symBinAddr: 0x100003CD0, symSize: 0x20 }
  - { offset: 0x115E9, size: 0x8, addend: 0x0, symName: __ZNKSt3__117__compressed_pairIP4CardNS_9allocatorIS1_EEE5firstB8ne180100Ev, symObjAddr: 0xBA0, symBinAddr: 0x100003CF0, symSize: 0x20 }
  - { offset: 0x1160D, size: 0x8, addend: 0x0, symName: __ZNKSt3__122__compressed_pair_elemIP4CardLi0ELb0EE5__getB8ne180100Ev, symObjAddr: 0xBC0, symBinAddr: 0x100003D10, symSize: 0x10 }
  - { offset: 0x11631, size: 0x8, addend: 0x0, symName: __ZNSt3__16vectorI4CardNS_9allocatorIS1_EEE9__end_capB8ne180100Ev, symObjAddr: 0xBD0, symBinAddr: 0x100003D20, symSize: 0x20 }
  - { offset: 0x11655, size: 0x8, addend: 0x0, symName: __ZNSt3__16vectorI4CardNS_9allocatorIS1_EEE22__construct_one_at_endB8ne180100IJRKS1_EEEvDpOT_, symObjAddr: 0xBF0, symBinAddr: 0x100003D40, symSize: 0x90 }
  - { offset: 0x116A4, size: 0x8, addend: 0x0, symName: __ZNSt3__16vectorI4CardNS_9allocatorIS1_EEE21__push_back_slow_pathIRKS1_EEPS1_OT_, symObjAddr: 0xC80, symBinAddr: 0x100003DD0, symSize: 0xE0 }
  - { offset: 0x11700, size: 0x8, addend: 0x0, symName: __ZNSt3__117__compressed_pairIP4CardNS_9allocatorIS1_EEE5firstB8ne180100Ev, symObjAddr: 0xD60, symBinAddr: 0x100003EB0, symSize: 0x20 }
  - { offset: 0x11724, size: 0x8, addend: 0x0, symName: __ZNSt3__122__compressed_pair_elemIP4CardLi0ELb0EE5__getB8ne180100Ev, symObjAddr: 0xD80, symBinAddr: 0x100003ED0, symSize: 0x10 }
  - { offset: 0x11761, size: 0x8, addend: 0x0, symName: __ZNSt3__16vectorI4CardNS_9allocatorIS1_EEE21_ConstructTransactionC1B8ne180100ERS4_m, symObjAddr: 0xD90, symBinAddr: 0x100003EE0, symSize: 0x30 }
  - { offset: 0x117A7, size: 0x8, addend: 0x0, symName: __ZNSt3__116allocator_traitsINS_9allocatorI4CardEEE9constructB8ne180100IS2_JRKS2_EvEEvRS3_PT_DpOT0_, symObjAddr: 0xDC0, symBinAddr: 0x100003F10, symSize: 0x30 }
  - { offset: 0x117FF, size: 0x8, addend: 0x0, symName: __ZNSt3__16vectorI4CardNS_9allocatorIS1_EEE21_ConstructTransactionD1B8ne180100Ev, symObjAddr: 0xDF0, symBinAddr: 0x100003F40, symSize: 0x20 }
  - { offset: 0x11827, size: 0x8, addend: 0x0, symName: __ZNSt3__16vectorI4CardNS_9allocatorIS1_EEE21_ConstructTransactionC2B8ne180100ERS4_m, symObjAddr: 0xE10, symBinAddr: 0x100003F60, symSize: 0x40 }
  - { offset: 0x1186D, size: 0x8, addend: 0x0, symName: __ZNSt3__19allocatorI4CardE9constructB8ne180100IS1_JRKS1_EEEvPT_DpOT0_, symObjAddr: 0xE50, symBinAddr: 0x100003FA0, symSize: 0x20 }
  - { offset: 0x118C3, size: 0x8, addend: 0x0, symName: __ZNSt3__16vectorI4CardNS_9allocatorIS1_EEE21_ConstructTransactionD2B8ne180100Ev, symObjAddr: 0xE70, symBinAddr: 0x100003FC0, symSize: 0x20 }
  - { offset: 0x118EB, size: 0x8, addend: 0x0, symName: __ZNKSt3__16vectorI4CardNS_9allocatorIS1_EEE11__recommendB8ne180100Em, symObjAddr: 0xE90, symBinAddr: 0x100003FE0, symSize: 0x90 }
  - { offset: 0x1193E, size: 0x8, addend: 0x0, symName: __ZNKSt3__16vectorI4CardNS_9allocatorIS1_EEE4sizeB8ne180100Ev, symObjAddr: 0xF20, symBinAddr: 0x100004070, symSize: 0x20 }
  - { offset: 0x11963, size: 0x8, addend: 0x0, symName: __ZNSt3__114__split_bufferI4CardRNS_9allocatorIS1_EEEC1EmmS4_, symObjAddr: 0xF40, symBinAddr: 0x100004090, symSize: 0x40 }
  - { offset: 0x119B8, size: 0x8, addend: 0x0, symName: __ZNSt3__114__split_bufferI4CardRNS_9allocatorIS1_EEED1Ev, symObjAddr: 0x10A0, symBinAddr: 0x1000041F0, symSize: 0x20 }
  - { offset: 0x119E2, size: 0x8, addend: 0x0, symName: __ZNKSt3__16vectorI4CardNS_9allocatorIS1_EEE8max_sizeEv, symObjAddr: 0x10C0, symBinAddr: 0x100004210, symSize: 0x60 }
  - { offset: 0x11A08, size: 0x8, addend: 0x0, symName: __ZNKSt3__16vectorI4CardNS_9allocatorIS1_EEE20__throw_length_errorB8ne180100Ev, symObjAddr: 0x1120, symBinAddr: 0x100004270, symSize: 0x20 }
  - { offset: 0x11A36, size: 0x8, addend: 0x0, symName: __ZNSt3__116allocator_traitsINS_9allocatorI4CardEEE8max_sizeB8ne180100IS3_vEEmRKS3_, symObjAddr: 0x11A0, symBinAddr: 0x1000042F0, symSize: 0x20 }
  - { offset: 0x11A63, size: 0x8, addend: 0x0, symName: __ZNKSt3__16vectorI4CardNS_9allocatorIS1_EEE7__allocB8ne180100Ev, symObjAddr: 0x11C0, symBinAddr: 0x100004310, symSize: 0x20 }
  - { offset: 0x11A9B, size: 0x8, addend: 0x0, symName: __ZNKSt3__16__lessIvvEclB8ne180100ImmEEbRKT_RKT0_, symObjAddr: 0x1240, symBinAddr: 0x100004380, symSize: 0x30 }
  - { offset: 0x11AED, size: 0x8, addend: 0x0, symName: __ZNKSt3__19allocatorI4CardE8max_sizeB8ne180100Ev, symObjAddr: 0x1270, symBinAddr: 0x1000043B0, symSize: 0x20 }
  - { offset: 0x11B11, size: 0x8, addend: 0x0, symName: __ZNKSt3__117__compressed_pairIP4CardNS_9allocatorIS1_EEE6secondB8ne180100Ev, symObjAddr: 0x1290, symBinAddr: 0x1000043D0, symSize: 0x20 }
  - { offset: 0x11B35, size: 0x8, addend: 0x0, symName: __ZNKSt3__122__compressed_pair_elemINS_9allocatorI4CardEELi1ELb1EE5__getB8ne180100Ev, symObjAddr: 0x12B0, symBinAddr: 0x1000043F0, symSize: 0x10 }
  - { offset: 0x11B59, size: 0x8, addend: 0x0, symName: __ZNSt12length_errorC1B8ne180100EPKc, symObjAddr: 0x1340, symBinAddr: 0x100004470, symSize: 0x30 }
  - { offset: 0x11B8F, size: 0x8, addend: 0x0, symName: __ZNSt12length_errorC2B8ne180100EPKc, symObjAddr: 0x1370, symBinAddr: 0x1000044A0, symSize: 0x40 }
  - { offset: 0x11BC6, size: 0x8, addend: 0x0, symName: __ZNSt3__114__split_bufferI4CardRNS_9allocatorIS1_EEEC2EmmS4_, symObjAddr: 0x1400, symBinAddr: 0x100004530, symSize: 0xD0 }
  - { offset: 0x11C37, size: 0x8, addend: 0x0, symName: __ZNSt3__117__compressed_pairIP4CardRNS_9allocatorIS1_EEEC1B8ne180100IDnS5_EEOT_OT0_, symObjAddr: 0x14D0, symBinAddr: 0x100004600, symSize: 0x30 }
  - { offset: 0x11C8D, size: 0x8, addend: 0x0, symName: __ZNSt3__114__split_bufferI4CardRNS_9allocatorIS1_EEE7__allocB8ne180100Ev, symObjAddr: 0x1540, symBinAddr: 0x100004670, symSize: 0x20 }
  - { offset: 0x11CB1, size: 0x8, addend: 0x0, symName: __ZNSt3__114__split_bufferI4CardRNS_9allocatorIS1_EEE9__end_capB8ne180100Ev, symObjAddr: 0x1560, symBinAddr: 0x100004690, symSize: 0x20 }
  - { offset: 0x11CD5, size: 0x8, addend: 0x0, symName: __ZNSt3__117__compressed_pairIP4CardRNS_9allocatorIS1_EEEC2B8ne180100IDnS5_EEOT_OT0_, symObjAddr: 0x1580, symBinAddr: 0x1000046B0, symSize: 0x40 }
  - { offset: 0x11D2B, size: 0x8, addend: 0x0, symName: __ZNSt3__122__compressed_pair_elemIRNS_9allocatorI4CardEELi1ELb0EEC2B8ne180100IS4_vEEOT_, symObjAddr: 0x15C0, symBinAddr: 0x1000046F0, symSize: 0x20 }
  - { offset: 0x11D6B, size: 0x8, addend: 0x0, symName: __ZNSt3__19allocatorI4CardE8allocateB8ne180100Em, symObjAddr: 0x15E0, symBinAddr: 0x100004710, symSize: 0x50 }
  - { offset: 0x11D9D, size: 0x8, addend: 0x0, symName: __ZNSt3__117__compressed_pairIP4CardRNS_9allocatorIS1_EEE6secondB8ne180100Ev, symObjAddr: 0x1720, symBinAddr: 0x100004850, symSize: 0x20 }
  - { offset: 0x11DC1, size: 0x8, addend: 0x0, symName: __ZNSt3__122__compressed_pair_elemIRNS_9allocatorI4CardEELi1ELb0EE5__getB8ne180100Ev, symObjAddr: 0x1740, symBinAddr: 0x100004870, symSize: 0x20 }
  - { offset: 0x11DE5, size: 0x8, addend: 0x0, symName: __ZNSt3__117__compressed_pairIP4CardRNS_9allocatorIS1_EEE5firstB8ne180100Ev, symObjAddr: 0x1760, symBinAddr: 0x100004890, symSize: 0x20 }
  - { offset: 0x11E09, size: 0x8, addend: 0x0, symName: __ZNSt3__116reverse_iteratorIP4CardEC1B8ne180100ES2_, symObjAddr: 0x17F0, symBinAddr: 0x100004920, symSize: 0x30 }
  - { offset: 0x11E3F, size: 0x8, addend: 0x0, symName: __ZNKSt3__116reverse_iteratorIP4CardE4baseB8ne180100Ev, symObjAddr: 0x1820, symBinAddr: 0x100004950, symSize: 0x20 }
  - { offset: 0x11E63, size: 0x8, addend: 0x0, symName: __ZNKSt3__16vectorI4CardNS_9allocatorIS1_EEE14__annotate_newB8ne180100Em, symObjAddr: 0x1880, symBinAddr: 0x1000049B0, symSize: 0x10 }
  - { offset: 0x11EB9, size: 0x8, addend: 0x0, symName: __ZNKSt3__111__move_loopINS_17_ClassicAlgPolicyEEclB8ne180100INS_16reverse_iteratorIP4CardEES7_S7_EENS_4pairIT_T1_EES9_T0_SA_, symObjAddr: 0x1CD0, symBinAddr: 0x100004E00, symSize: 0xA0 }
  - { offset: 0x11F27, size: 0x8, addend: 0x0, symName: __ZNSt3__18_IterOpsINS_17_ClassicAlgPolicyEE11__iter_moveB8ne180100IRNS_16reverse_iteratorIP4CardEELi0EEEDTclsr3stdE4movedeclsr3stdE7declvalIRT_EEEEOS9_, symObjAddr: 0x1EF0, symBinAddr: 0x100005020, symSize: 0x20 }
  - { offset: 0x11F59, size: 0x8, addend: 0x0, symName: __ZNKSt3__116reverse_iteratorIP4CardEdeB8ne180100Ev, symObjAddr: 0x1F10, symBinAddr: 0x100005040, symSize: 0x30 }
  - { offset: 0x11F8B, size: 0x8, addend: 0x0, symName: __ZNSt3__116reverse_iteratorIP4CardEppB8ne180100Ev, symObjAddr: 0x1F40, symBinAddr: 0x100005070, symSize: 0x20 }
  - { offset: 0x11FAF, size: 0x8, addend: 0x0, symName: __ZNSt3__18_IterOpsINS_17_ClassicAlgPolicyEE25__validate_iter_referenceB8ne180100IRNS_16reverse_iteratorIP4CardEEEEvv, symObjAddr: 0x1F60, symBinAddr: 0x100005090, symSize: 0x10 }
  - { offset: 0x11FCC, size: 0x8, addend: 0x0, symName: __ZNSt3__118__unwrap_iter_implINS_16reverse_iteratorIP4CardEELb0EE8__unwrapB8ne180100ES4_, symObjAddr: 0x1F70, symBinAddr: 0x1000050A0, symSize: 0x20 }
  - { offset: 0x11FF3, size: 0x8, addend: 0x0, symName: __ZNSt3__14pairINS_16reverse_iteratorIP4CardEES4_EC1B8ne180100IS4_S4_Li0EEEOT_OT0_, symObjAddr: 0x1F90, symBinAddr: 0x1000050C0, symSize: 0x30 }
  - { offset: 0x12050, size: 0x8, addend: 0x0, symName: __ZNSt3__14pairINS_16reverse_iteratorIP4CardEES4_EC2B8ne180100IS4_S4_Li0EEEOT_OT0_, symObjAddr: 0x1FC0, symBinAddr: 0x1000050F0, symSize: 0x40 }
  - { offset: 0x120AD, size: 0x8, addend: 0x0, symName: __ZNSt3__118__unwrap_iter_implINS_16reverse_iteratorIP4CardEELb0EE8__rewrapB8ne180100ES4_S4_, symObjAddr: 0x2000, symBinAddr: 0x100005130, symSize: 0x30 }
  - { offset: 0x120D9, size: 0x8, addend: 0x0, symName: __ZNSt3__116reverse_iteratorIP4CardEC2B8ne180100ES2_, symObjAddr: 0x2030, symBinAddr: 0x100005160, symSize: 0x30 }
  - { offset: 0x12110, size: 0x8, addend: 0x0, symName: __ZNSt3__114__split_bufferI4CardRNS_9allocatorIS1_EEED2Ev, symObjAddr: 0x2060, symBinAddr: 0x100005190, symSize: 0x70 }
  - { offset: 0x1213A, size: 0x8, addend: 0x0, symName: __ZNSt3__114__split_bufferI4CardRNS_9allocatorIS1_EEE5clearB8ne180100Ev, symObjAddr: 0x20D0, symBinAddr: 0x100005200, symSize: 0x20 }
  - { offset: 0x1215E, size: 0x8, addend: 0x0, symName: __ZNKSt3__114__split_bufferI4CardRNS_9allocatorIS1_EEE8capacityB8ne180100Ev, symObjAddr: 0x20F0, symBinAddr: 0x100005220, symSize: 0x30 }
  - { offset: 0x12182, size: 0x8, addend: 0x0, symName: __ZNSt3__114__split_bufferI4CardRNS_9allocatorIS1_EEE17__destruct_at_endB8ne180100EPS1_, symObjAddr: 0x2120, symBinAddr: 0x100005250, symSize: 0x30 }
  - { offset: 0x121B4, size: 0x8, addend: 0x0, symName: __ZNSt3__114__split_bufferI4CardRNS_9allocatorIS1_EEE17__destruct_at_endB8ne180100EPS1_NS_17integral_constantIbLb0EEE, symObjAddr: 0x2150, symBinAddr: 0x100005280, symSize: 0x80 }
  - { offset: 0x121F2, size: 0x8, addend: 0x0, symName: __ZNKSt3__114__split_bufferI4CardRNS_9allocatorIS1_EEE9__end_capB8ne180100Ev, symObjAddr: 0x21D0, symBinAddr: 0x100005300, symSize: 0x20 }
  - { offset: 0x12216, size: 0x8, addend: 0x0, symName: __ZNKSt3__117__compressed_pairIP4CardRNS_9allocatorIS1_EEE5firstB8ne180100Ev, symObjAddr: 0x21F0, symBinAddr: 0x100005320, symSize: 0x1B }
  - { offset: 0x17B3F, size: 0x8, addend: 0x0, symName: __ZNSt3__111__introsortINS_17_ClassicAlgPolicyERNS_6__lessIvvEEP4CardLb0EEEvT1_S7_T0_NS_15iterator_traitsIS7_E15difference_typeEb, symObjAddr: 0x3C10, symBinAddr: 0x1000071F0, symSize: 0x440 }
  - { offset: 0x17C6E, size: 0x8, addend: 0x0, symName: __ZNSt3__126__insertion_sort_unguardedB8ne180100INS_17_ClassicAlgPolicyERNS_6__lessIvvEEP4CardEEvT1_S7_T0_, symObjAddr: 0x42C0, symBinAddr: 0x1000078A0, symSize: 0x100 }
  - { offset: 0x17D5F, size: 0x8, addend: 0x0, symName: __ZNSt3__111__sift_downB8ne180100INS_17_ClassicAlgPolicyERNS_6__lessIvvEEP4CardEEvT1_OT0_NS_15iterator_traitsIS7_E15difference_typeES7_, symObjAddr: 0x52D0, symBinAddr: 0x1000088B0, symSize: 0x1E0 }
  - { offset: 0x17E0C, size: 0x8, addend: 0x0, symName: __ZNSt3__117__floyd_sift_downB8ne180100INS_17_ClassicAlgPolicyERNS_6__lessIvvEEP4CardEET1_S7_OT0_NS_15iterator_traitsIS7_E15difference_typeE, symObjAddr: 0x5620, symBinAddr: 0x100008C00, symSize: 0x100 }
  - { offset: 0x17EA4, size: 0x8, addend: 0x0, symName: __ZNSt3__131__partition_with_equals_on_leftB8ne180100INS_17_ClassicAlgPolicyEP4CardRNS_6__lessIvvEEEET0_S7_S7_T1_, symObjAddr: 0x45C0, symBinAddr: 0x100007BA0, symSize: 0x1D0 }
  - { offset: 0x17F5F, size: 0x8, addend: 0x0, symName: __ZNSt3__118__bitset_partitionB8ne180100INS_17_ClassicAlgPolicyEP4CardRNS_6__lessIvvEEEENS_4pairIT0_bEES8_S8_T1_, symObjAddr: 0x4790, symBinAddr: 0x100007D70, symSize: 0x2B0 }
  - { offset: 0x1805C, size: 0x8, addend: 0x0, symName: __ZNSt3__124__swap_bitmap_pos_withinB8ne180100INS_17_ClassicAlgPolicyEP4CardEEvRT0_S5_RyS6_, symObjAddr: 0x5C90, symBinAddr: 0x100009270, symSize: 0x190 }
  - { offset: 0x18129, size: 0x8, addend: 0x0, symName: __ZNSt3__132__partition_with_equals_on_rightB8ne180100INS_17_ClassicAlgPolicyEP4CardRNS_6__lessIvvEEEENS_4pairIT0_bEES8_S8_T1_, symObjAddr: 0x4A40, symBinAddr: 0x100008020, symSize: 0x1D0 }
  - { offset: 0x181F5, size: 0x8, addend: 0x0, symName: __ZNSt3__127__insertion_sort_incompleteB8ne180100INS_17_ClassicAlgPolicyERNS_6__lessIvvEEP4CardEEbT1_S7_T0_, symObjAddr: 0x4C10, symBinAddr: 0x1000081F0, symSize: 0x290 }
  - { offset: 0x18CB1, size: 0x8, addend: 0x0, symName: __ZNSt3__1lsB8ne180100IcNS_11char_traitsIcEENS_9allocatorIcEEEERNS_13basic_ostreamIT_T0_EES9_RKNS_12basic_stringIS6_S7_T1_EE, symObjAddr: 0x210, symBinAddr: 0x1000054C0, symSize: 0x50 }
  - { offset: 0x18EB9, size: 0x8, addend: 0x0, symName: __ZNSt3__1miB8ne180100IPK4CardS3_EEDTmicldtfp_4baseEcldtfp0_4baseEERKNS_11__wrap_iterIT_EERKNS5_IT0_EE, symObjAddr: 0x29C0, symBinAddr: 0x100006170, symSize: 0x40 }
  - { offset: 0x18F05, size: 0x8, addend: 0x0, symName: __ZNSt3__14moveB8ne180100IP4CardS2_EET0_T_S4_S3_, symObjAddr: 0x2A80, symBinAddr: 0x100006230, symSize: 0x40 }
  - { offset: 0x18F5F, size: 0x8, addend: 0x0, symName: __ZNSt3__16__moveB8ne180100INS_17_ClassicAlgPolicyEP4CardS3_S3_EENS_4pairIT0_T2_EES5_T1_S6_, symObjAddr: 0x2C50, symBinAddr: 0x100006380, symSize: 0x40 }
  - { offset: 0x18FCB, size: 0x8, addend: 0x0, symName: __ZNSt3__123__dispatch_copy_or_moveB8ne180100INS_17_ClassicAlgPolicyENS_11__move_loopIS1_EENS_14__move_trivialEP4CardS6_S6_EENS_4pairIT2_T4_EES8_T3_S9_, symObjAddr: 0x2C90, symBinAddr: 0x1000063C0, symSize: 0x40 }
  - { offset: 0x19049, size: 0x8, addend: 0x0, symName: __ZNSt3__121__unwrap_and_dispatchB8ne180100INS_10__overloadINS_11__move_loopINS_17_ClassicAlgPolicyEEENS_14__move_trivialEEEP4CardS8_S8_Li0EEENS_4pairIT0_T2_EESA_T1_SB_, symObjAddr: 0x2CD0, symBinAddr: 0x100006400, symSize: 0xB0 }
  - { offset: 0x190D9, size: 0x8, addend: 0x0, symName: __ZNSt3__114__unwrap_rangeB8ne180100IP4CardS2_EENS_4pairIT0_S4_EET_S6_, symObjAddr: 0x2D80, symBinAddr: 0x1000064B0, symSize: 0x50 }
  - { offset: 0x19271, size: 0x8, addend: 0x0, symName: __ZNSt3__113__unwrap_iterB8ne180100IP4CardNS_18__unwrap_iter_implIS2_Lb1EEELi0EEEDTclsrT0_8__unwrapclsr3stdE7declvalIT_EEEES6_, symObjAddr: 0x2E10, symBinAddr: 0x100006540, symSize: 0x20 }
  - { offset: 0x192B6, size: 0x8, addend: 0x0, symName: __ZNSt3__19make_pairB8ne180100IP4CardS2_EENS_4pairINS_18__unwrap_ref_decayIT_E4typeENS4_IT0_E4typeEEEOS5_OS8_, symObjAddr: 0x2E30, symBinAddr: 0x100006560, symSize: 0x30 }
  - { offset: 0x19305, size: 0x8, addend: 0x0, symName: __ZNSt3__114__rewrap_rangeB8ne180100IP4CardS2_EET_S3_T0_, symObjAddr: 0x2E60, symBinAddr: 0x100006590, symSize: 0x30 }
  - { offset: 0x19351, size: 0x8, addend: 0x0, symName: __ZNSt3__113__rewrap_iterB8ne180100IP4CardS2_NS_18__unwrap_iter_implIS2_Lb1EEEEET_S5_T0_, symObjAddr: 0x2E90, symBinAddr: 0x1000065C0, symSize: 0x40 }
  - { offset: 0x193A6, size: 0x8, addend: 0x0, symName: __ZNSt3__119__copy_trivial_implB8ne180100I4CardS1_EENS_4pairIPT_PT0_EES4_S4_S6_, symObjAddr: 0x2ED0, symBinAddr: 0x100006600, symSize: 0x70 }
  - { offset: 0x1940E, size: 0x8, addend: 0x0, symName: __ZNSt3__119__constexpr_memmoveB8ne180100I4CardS1_Li0EEEPT_S3_PT0_NS_15__element_countE, symObjAddr: 0x2F40, symBinAddr: 0x100006670, symSize: 0x50 }
  - { offset: 0x1947D, size: 0x8, addend: 0x0, symName: __ZNSt3__19make_pairB8ne180100IRP4CardS2_EENS_4pairINS_18__unwrap_ref_decayIT_E4typeENS5_IT0_E4typeEEEOS6_OS9_, symObjAddr: 0x2F90, symBinAddr: 0x1000066C0, symSize: 0x30 }
  - { offset: 0x19520, size: 0x8, addend: 0x0, symName: __ZNSt3__14sortB8ne180100INS_11__wrap_iterIP4CardEEEEvT_S5_, symObjAddr: 0x39B0, symBinAddr: 0x100006F90, symSize: 0x40 }
  - { offset: 0x19563, size: 0x8, addend: 0x0, symName: __ZNSt3__14sortB8ne180100INS_11__wrap_iterIP4CardEENS_6__lessIvvEEEEvT_S7_T0_, symObjAddr: 0x3A20, symBinAddr: 0x100007000, symSize: 0x40 }
  - { offset: 0x195BE, size: 0x8, addend: 0x0, symName: __ZNSt3__111__sort_implB8ne180100INS_17_ClassicAlgPolicyENS_11__wrap_iterIP4CardEENS_6__lessIvvEEEEvT0_S8_RT1_, symObjAddr: 0x3A60, symBinAddr: 0x100007040, symSize: 0xB0 }
  - { offset: 0x19622, size: 0x8, addend: 0x0, symName: __ZNSt3__123__debug_randomize_rangeB8ne180100INS_17_ClassicAlgPolicyENS_11__wrap_iterIP4CardEES5_EEvT0_T1_, symObjAddr: 0x3B10, symBinAddr: 0x1000070F0, symSize: 0x10 }
  - { offset: 0x19674, size: 0x8, addend: 0x0, symName: __ZNSt3__115__sort_dispatchB8ne180100INS_17_ClassicAlgPolicyEP4CardNS_6__lessIvvEEEEvT0_S6_RT1_, symObjAddr: 0x3B20, symBinAddr: 0x100007100, symSize: 0x50 }
  - { offset: 0x196F2, size: 0x8, addend: 0x0, symName: __ZNSt3__113__unwrap_iterB8ne180100INS_11__wrap_iterIP4CardEENS_18__unwrap_iter_implIS4_Lb1EEELi0EEEDTclsrT0_8__unwrapclsr3stdE7declvalIT_EEEES8_, symObjAddr: 0x3B70, symBinAddr: 0x100007150, symSize: 0x30 }
  - { offset: 0x19738, size: 0x8, addend: 0x0, symName: __ZNSt3__135__check_strict_weak_ordering_sortedB8ne180100IP4CardNS_6__lessIvvEEEEvT_S5_RT0_, symObjAddr: 0x3BA0, symBinAddr: 0x100007180, symSize: 0x20 }
  - { offset: 0x1978E, size: 0x8, addend: 0x0, symName: __ZNSt3__17__log2iB8ne180100IlEET_S1_, symObjAddr: 0x3BC0, symBinAddr: 0x1000071A0, symSize: 0x50 }
  - { offset: 0x197C5, size: 0x8, addend: 0x0, symName: __ZNSt3__112__libcpp_clzB8ne180100Em, symObjAddr: 0x4050, symBinAddr: 0x100007630, symSize: 0x20 }
  - { offset: 0x197F2, size: 0x8, addend: 0x0, symName: __ZNSt3__124__sort3_maybe_branchlessB8ne180100INS_17_ClassicAlgPolicyERNS_6__lessIvvEEP4CardLi0EEEvT1_S7_S7_T0_, symObjAddr: 0x40D0, symBinAddr: 0x1000076B0, symSize: 0x40 }
  - { offset: 0x19867, size: 0x8, addend: 0x0, symName: __ZNSt3__124__sort4_maybe_branchlessB8ne180100INS_17_ClassicAlgPolicyERNS_6__lessIvvEEP4CardLi0EEEvT1_S7_S7_S7_T0_, symObjAddr: 0x4110, symBinAddr: 0x1000076F0, symSize: 0x40 }
  - { offset: 0x198EA, size: 0x8, addend: 0x0, symName: __ZNSt3__124__sort5_maybe_branchlessB8ne180100INS_17_ClassicAlgPolicyERNS_6__lessIvvEEP4CardLi0EEEvT1_S7_S7_S7_S7_T0_, symObjAddr: 0x4150, symBinAddr: 0x100007730, symSize: 0x50 }
  - { offset: 0x19982, size: 0x8, addend: 0x0, symName: __ZNSt3__116__insertion_sortB8ne180100INS_17_ClassicAlgPolicyERNS_6__lessIvvEEP4CardEEvT1_S7_T0_, symObjAddr: 0x41A0, symBinAddr: 0x100007780, symSize: 0x120 }
  - { offset: 0x19A49, size: 0x8, addend: 0x0, symName: __ZNSt3__114__partial_sortB8ne180100INS_17_ClassicAlgPolicyERNS_6__lessIvvEEP4CardS6_EET1_S7_S7_T2_RT0_, symObjAddr: 0x43C0, symBinAddr: 0x1000079A0, symSize: 0x90 }
  - { offset: 0x19AD1, size: 0x8, addend: 0x0, symName: __ZNSt3__17__sort3B8ne180100INS_17_ClassicAlgPolicyERNS_6__lessIvvEEP4CardEEjT1_S7_S7_T0_, symObjAddr: 0x4450, symBinAddr: 0x100007A30, symSize: 0x140 }
  - { offset: 0x19B51, size: 0x8, addend: 0x0, symName: __ZNSt3__19iter_swapB8ne180100IP4CardS2_EEvT_T0_, symObjAddr: 0x4EA0, symBinAddr: 0x100008480, symSize: 0x30 }
  - { offset: 0x19B99, size: 0x8, addend: 0x0, symName: __ZNSt3__14swapB8ne180100I4CardEENS_9enable_ifIXaasr21is_move_constructibleIT_EE5valuesr18is_move_assignableIS3_EE5valueEvE4typeERS3_S6_, symObjAddr: 0x4ED0, symBinAddr: 0x1000084B0, symSize: 0x40 }
  - { offset: 0x19BEB, size: 0x8, addend: 0x0, symName: __ZNSt3__17__sort4B8ne180100INS_17_ClassicAlgPolicyERNS_6__lessIvvEEP4CardEEvT1_S7_S7_S7_T0_, symObjAddr: 0x4F10, symBinAddr: 0x1000084F0, symSize: 0xD0 }
  - { offset: 0x19C67, size: 0x8, addend: 0x0, symName: __ZNSt3__17__sort5B8ne180100INS_17_ClassicAlgPolicyERNS_6__lessIvvEEP4CardEEvT1_S7_S7_S7_S7_T0_, symObjAddr: 0x4FE0, symBinAddr: 0x1000085C0, symSize: 0x100 }
  - { offset: 0x19CF1, size: 0x8, addend: 0x0, symName: __ZNSt3__123__debug_randomize_rangeB8ne180100INS_17_ClassicAlgPolicyEP4CardS3_EEvT0_T1_, symObjAddr: 0x5130, symBinAddr: 0x100008710, symSize: 0x10 }
  - { offset: 0x19D42, size: 0x8, addend: 0x0, symName: __ZNSt3__119__partial_sort_implB8ne180100INS_17_ClassicAlgPolicyERNS_6__lessIvvEEP4CardS6_EET1_S7_S7_T2_OT0_, symObjAddr: 0x5140, symBinAddr: 0x100008720, symSize: 0xF0 }
  - { offset: 0x19DD9, size: 0x8, addend: 0x0, symName: __ZNSt3__111__make_heapB8ne180100INS_17_ClassicAlgPolicyERNS_6__lessIvvEEP4CardEEvT1_S7_OT0_, symObjAddr: 0x5230, symBinAddr: 0x100008810, symSize: 0xA0 }
  - { offset: 0x19E7C, size: 0x8, addend: 0x0, symName: __ZNSt3__111__sort_heapB8ne180100INS_17_ClassicAlgPolicyERNS_6__lessIvvEEP4CardEEvT1_S7_OT0_, symObjAddr: 0x54B0, symBinAddr: 0x100008A90, symSize: 0x90 }
  - { offset: 0x19F1F, size: 0x8, addend: 0x0, symName: __ZNSt3__110__pop_heapB8ne180100INS_17_ClassicAlgPolicyENS_6__lessIvvEEP4CardEEvT1_S6_RT0_NS_15iterator_traitsIS6_E15difference_typeE, symObjAddr: 0x5540, symBinAddr: 0x100008B20, symSize: 0xE0 }
  - { offset: 0x19FD0, size: 0x8, addend: 0x0, symName: __ZNSt3__19__sift_upB8ne180100INS_17_ClassicAlgPolicyERNS_6__lessIvvEEP4CardEEvT1_S7_OT0_NS_15iterator_traitsIS7_E15difference_typeE, symObjAddr: 0x5720, symBinAddr: 0x100008D00, symSize: 0x110 }
  - { offset: 0x1A081, size: 0x8, addend: 0x0, symName: __ZNSt3__122__populate_left_bitsetB8ne180100IRNS_6__lessIvvEEP4CardS4_EEvT0_T_RT1_Ry, symObjAddr: 0x5830, symBinAddr: 0x100008E10, symSize: 0x90 }
  - { offset: 0x1A13D, size: 0x8, addend: 0x0, symName: __ZNSt3__123__populate_right_bitsetB8ne180100IRNS_6__lessIvvEEP4CardS4_EEvT0_T_RT1_Ry, symObjAddr: 0x58C0, symBinAddr: 0x100008EA0, symSize: 0x90 }
  - { offset: 0x1A1F9, size: 0x8, addend: 0x0, symName: __ZNSt3__117__swap_bitmap_posB8ne180100INS_17_ClassicAlgPolicyEP4CardEEvT0_S4_RyS5_, symObjAddr: 0x5950, symBinAddr: 0x100008F30, symSize: 0xE0 }
  - { offset: 0x1A29B, size: 0x8, addend: 0x0, symName: __ZNSt3__133__bitset_partition_partial_blocksB8ne180100INS_17_ClassicAlgPolicyERNS_6__lessIvvEEP4CardS5_EEvRT1_S8_T0_RT2_RySC_, symObjAddr: 0x5A30, symBinAddr: 0x100009010, symSize: 0x260 }
  - { offset: 0x1A422, size: 0x8, addend: 0x0, symName: __ZNSt3__19make_pairB8ne180100IRP4CardRbEENS_4pairINS_18__unwrap_ref_decayIT_E4typeENS6_IT0_E4typeEEEOS7_OSA_, symObjAddr: 0x5E20, symBinAddr: 0x100009400, symSize: 0x30 }
  - { offset: 0x1A471, size: 0x8, addend: 0x0, symName: __ZNSt3__112__libcpp_ctzB8ne180100Ey, symObjAddr: 0x5E50, symBinAddr: 0x100009430, symSize: 0x20 }
  - { offset: 0x1A49D, size: 0x8, addend: 0x0, symName: __ZNSt3__113__libcpp_blsrB8ne180100Ey, symObjAddr: 0x5E70, symBinAddr: 0x100009450, symSize: 0x20 }
  - { offset: 0x1A4C9, size: 0x8, addend: 0x0, symName: __ZNSt3__112__libcpp_clzB8ne180100Ey, symObjAddr: 0x5EC0, symBinAddr: 0x1000094A0, symSize: 0x20 }
  - { offset: 0x1A61D, size: 0x8, addend: 0x0, symName: __ZNSt3__112__to_addressB8ne180100INS_11__wrap_iterIP4CardEEvEEu7__decayIDTclsr19__to_address_helperIT_EE6__callclsr3stdE7declvalIRKS5_EEEEES7_, symObjAddr: 0x5F60, symBinAddr: 0x100009540, symSize: 0x20 }
  - { offset: 0x1A6F9, size: 0x8, addend: 0x0, symName: __ZNSt3__112__to_addressB8ne180100IKcEEPT_S3_, symObjAddr: 0x75E0, symBinAddr: 0x100009730, symSize: 0x10 }
  - { offset: 0x1B657, size: 0x8, addend: 0x0, symName: __Z14Player_factoryRKNSt3__112basic_stringIcNS_11char_traitsIcEENS_9allocatorIcEEEES7_, symObjAddr: 0x0, symBinAddr: 0x100005340, symSize: 0xE0 }
  - { offset: 0x1B912, size: 0x8, addend: 0x0, symName: __ZN12SimplePlayerC1ERKNSt3__112basic_stringIcNS0_11char_traitsIcEENS0_9allocatorIcEEEE, symObjAddr: 0x170, symBinAddr: 0x100005420, symSize: 0x30 }
  - { offset: 0x1BAA0, size: 0x8, addend: 0x0, symName: __ZN11HumanPlayerC1ERKNSt3__112basic_stringIcNS0_11char_traitsIcEENS0_9allocatorIcEEEE, symObjAddr: 0x1A0, symBinAddr: 0x100005450, symSize: 0x30 }
  - { offset: 0x1BAD6, size: 0x8, addend: 0x0, symName: __ZlsRNSt3__113basic_ostreamIcNS_11char_traitsIcEEEERK6Player, symObjAddr: 0x1D0, symBinAddr: 0x100005480, symSize: 0x40 }
  - { offset: 0x1BB13, size: 0x8, addend: 0x0, symName: __ZN12SimplePlayerC2ERKNSt3__112basic_stringIcNS0_11char_traitsIcEENS0_9allocatorIcEEEE, symObjAddr: 0x260, symBinAddr: 0x100005510, symSize: 0x80 }
  - { offset: 0x1BB49, size: 0x8, addend: 0x0, symName: __ZN6PlayerC2Ev, symObjAddr: 0x2E0, symBinAddr: 0x100005590, symSize: 0x20 }
  - { offset: 0x1BB73, size: 0x8, addend: 0x0, symName: __ZN6PlayerD2Ev, symObjAddr: 0x320, symBinAddr: 0x1000055B0, symSize: 0x10 }
  - { offset: 0x1BB9B, size: 0x8, addend: 0x0, symName: __ZNK12SimplePlayer8get_nameEv, symObjAddr: 0x330, symBinAddr: 0x1000055C0, symSize: 0x20 }
  - { offset: 0x1BBBF, size: 0x8, addend: 0x0, symName: __ZN12SimplePlayer8add_cardERK4Card, symObjAddr: 0x350, symBinAddr: 0x1000055E0, symSize: 0x30 }
  - { offset: 0x1BBF1, size: 0x8, addend: 0x0, symName: __ZNK12SimplePlayer10make_trumpERK4CardbiR4Suit, symObjAddr: 0x380, symBinAddr: 0x100005610, symSize: 0x240 }
  - { offset: 0x1BC93, size: 0x8, addend: 0x0, symName: __ZN12SimplePlayer15add_and_discardERK4Card, symObjAddr: 0x5C0, symBinAddr: 0x100005850, symSize: 0x130 }
  - { offset: 0x1BCFD, size: 0x8, addend: 0x0, symName: __ZN12SimplePlayer9lead_cardE4Suit, symObjAddr: 0x6F0, symBinAddr: 0x100005980, symSize: 0x2D0 }
  - { offset: 0x1BDA0, size: 0x8, addend: 0x0, symName: __ZN12SimplePlayer9play_cardERK4Card4Suit, symObjAddr: 0x9C0, symBinAddr: 0x100005C50, symSize: 0x360 }
  - { offset: 0x1BE5F, size: 0x8, addend: 0x0, symName: __ZN12SimplePlayerD1Ev, symObjAddr: 0xD20, symBinAddr: 0x100005FB0, symSize: 0x20 }
  - { offset: 0x1BE89, size: 0x8, addend: 0x0, symName: __ZN12SimplePlayerD0Ev, symObjAddr: 0xD40, symBinAddr: 0x100005FD0, symSize: 0x30 }
  - { offset: 0x1BEB3, size: 0x8, addend: 0x0, symName: __ZN6PlayerD1Ev, symObjAddr: 0xD70, symBinAddr: 0x100006000, symSize: 0x10 }
  - { offset: 0x1BEDB, size: 0x8, addend: 0x0, symName: __ZN6PlayerD0Ev, symObjAddr: 0xD80, symBinAddr: 0x100006010, symSize: 0x10 }
  - { offset: 0x1BF3F, size: 0x8, addend: 0x0, symName: __ZNKSt3__16vectorI4CardNS_9allocatorIS1_EEEixB8ne180100Em, symObjAddr: 0x2850, symBinAddr: 0x100006020, symSize: 0x20 }
  - { offset: 0x1BF74, size: 0x8, addend: 0x0, symName: __ZNSt3__16vectorI4CardNS_9allocatorIS1_EEE5eraseB8ne180100ENS_11__wrap_iterIPKS1_EE, symObjAddr: 0x2890, symBinAddr: 0x100006040, symSize: 0x90 }
  - { offset: 0x1BFC7, size: 0x8, addend: 0x0, symName: __ZNSt3__16vectorI4CardNS_9allocatorIS1_EEE5beginB8ne180100Ev, symObjAddr: 0x2920, symBinAddr: 0x1000060D0, symSize: 0x30 }
  - { offset: 0x1BFED, size: 0x8, addend: 0x0, symName: __ZNKSt3__111__wrap_iterIP4CardEplB8ne180100El, symObjAddr: 0x2950, symBinAddr: 0x100006100, symSize: 0x40 }
  - { offset: 0x1C032, size: 0x8, addend: 0x0, symName: __ZNSt3__111__wrap_iterIPK4CardEC1B8ne180100IPS1_Li0EEERKNS0_IT_EE, symObjAddr: 0x2990, symBinAddr: 0x100006140, symSize: 0x30 }
  - { offset: 0x1C078, size: 0x8, addend: 0x0, symName: __ZNKSt3__16vectorI4CardNS_9allocatorIS1_EEE6cbeginB8ne180100Ev, symObjAddr: 0x2A00, symBinAddr: 0x1000061B0, symSize: 0x30 }
  - { offset: 0x1C09C, size: 0x8, addend: 0x0, symName: __ZNSt3__16vectorI4CardNS_9allocatorIS1_EEE17__destruct_at_endB8ne180100EPS1_, symObjAddr: 0x2A30, symBinAddr: 0x1000061E0, symSize: 0x50 }
  - { offset: 0x1C0DE, size: 0x8, addend: 0x0, symName: __ZNSt3__16vectorI4CardNS_9allocatorIS1_EEE11__make_iterB8ne180100EPS1_, symObjAddr: 0x2AC0, symBinAddr: 0x100006270, symSize: 0x30 }
  - { offset: 0x1C111, size: 0x8, addend: 0x0, symName: __ZNKSt3__111__wrap_iterIPK4CardE4baseB8ne180100Ev, symObjAddr: 0x2AF0, symBinAddr: 0x1000062A0, symSize: 0x20 }
  - { offset: 0x1C135, size: 0x8, addend: 0x0, symName: __ZNKSt3__16vectorI4CardNS_9allocatorIS1_EEE5beginB8ne180100Ev, symObjAddr: 0x2B10, symBinAddr: 0x1000062C0, symSize: 0x30 }
  - { offset: 0x1C15B, size: 0x8, addend: 0x0, symName: __ZNKSt3__16vectorI4CardNS_9allocatorIS1_EEE11__make_iterB8ne180100EPKS1_, symObjAddr: 0x2B40, symBinAddr: 0x1000062F0, symSize: 0x30 }
  - { offset: 0x1C18E, size: 0x8, addend: 0x0, symName: __ZNSt3__111__wrap_iterIPK4CardEC1B8ne180100ES3_, symObjAddr: 0x2B70, symBinAddr: 0x100006320, symSize: 0x30 }
  - { offset: 0x1C1C4, size: 0x8, addend: 0x0, symName: __ZNSt3__111__wrap_iterIPK4CardEC2B8ne180100ES3_, symObjAddr: 0x2BA0, symBinAddr: 0x100006350, symSize: 0x20 }
  - { offset: 0x1C1FA, size: 0x8, addend: 0x0, symName: __ZNKSt3__16vectorI4CardNS_9allocatorIS1_EEE17__annotate_shrinkB8ne180100Em, symObjAddr: 0x2C40, symBinAddr: 0x100006370, symSize: 0x10 }
  - { offset: 0x1C250, size: 0x8, addend: 0x0, symName: __ZNKSt3__114__move_trivialclB8ne180100I4CardS2_Li0EEENS_4pairIPT_PT0_EES5_S5_S7_, symObjAddr: 0x2DD0, symBinAddr: 0x100006500, symSize: 0x40 }
  - { offset: 0x1C2BC, size: 0x8, addend: 0x0, symName: __ZNSt3__14pairIP4CardS2_EC1B8ne180100IRS2_S2_Li0EEEOT_OT0_, symObjAddr: 0x2FC0, symBinAddr: 0x1000066F0, symSize: 0x30 }
  - { offset: 0x1C319, size: 0x8, addend: 0x0, symName: __ZNSt3__14pairIP4CardS2_EC2B8ne180100IRS2_S2_Li0EEEOT_OT0_, symObjAddr: 0x2FF0, symBinAddr: 0x100006720, symSize: 0x30 }
  - { offset: 0x1C376, size: 0x8, addend: 0x0, symName: __ZNSt3__118__unwrap_iter_implIP4CardLb1EE8__unwrapB8ne180100ES2_, symObjAddr: 0x3020, symBinAddr: 0x100006750, symSize: 0x20 }
  - { offset: 0x1C398, size: 0x8, addend: 0x0, symName: __ZNSt3__14pairIP4CardS2_EC1B8ne180100IS2_S2_Li0EEEOT_OT0_, symObjAddr: 0x3040, symBinAddr: 0x100006770, symSize: 0x30 }
  - { offset: 0x1C3F5, size: 0x8, addend: 0x0, symName: __ZNSt3__14pairIP4CardS2_EC2B8ne180100IS2_S2_Li0EEEOT_OT0_, symObjAddr: 0x3070, symBinAddr: 0x1000067A0, symSize: 0x30 }
  - { offset: 0x1C452, size: 0x8, addend: 0x0, symName: __ZNSt3__118__unwrap_iter_implIP4CardLb1EE8__rewrapB8ne180100ES2_S2_, symObjAddr: 0x30A0, symBinAddr: 0x1000067D0, symSize: 0x50 }
  - { offset: 0x1C482, size: 0x8, addend: 0x0, symName: __ZNSt3__111__wrap_iterIP4CardEC1B8ne180100ES2_, symObjAddr: 0x30F0, symBinAddr: 0x100006820, symSize: 0x30 }
  - { offset: 0x1C4B8, size: 0x8, addend: 0x0, symName: __ZNSt3__111__wrap_iterIP4CardEC2B8ne180100ES2_, symObjAddr: 0x3120, symBinAddr: 0x100006850, symSize: 0x20 }
  - { offset: 0x1C4EE, size: 0x8, addend: 0x0, symName: __ZNSt3__111__wrap_iterIP4CardEpLB8ne180100El, symObjAddr: 0x3140, symBinAddr: 0x100006870, symSize: 0x20 }
  - { offset: 0x1C520, size: 0x8, addend: 0x0, symName: __ZNSt3__111__wrap_iterIPK4CardEC2B8ne180100IPS1_Li0EEERKNS0_IT_EE, symObjAddr: 0x3160, symBinAddr: 0x100006890, symSize: 0x40 }
  - { offset: 0x1C566, size: 0x8, addend: 0x0, symName: __ZNKSt3__111__wrap_iterIP4CardE4baseB8ne180100Ev, symObjAddr: 0x31A0, symBinAddr: 0x1000068D0, symSize: 0x20 }
  - { offset: 0x1C58A, size: 0x8, addend: 0x0, symName: __ZN12SimplePlayerD2Ev, symObjAddr: 0x31C0, symBinAddr: 0x1000068F0, symSize: 0x50 }
  - { offset: 0x1C5B4, size: 0x8, addend: 0x0, symName: __ZN11HumanPlayerC2ERKNSt3__112basic_stringIcNS0_11char_traitsIcEENS0_9allocatorIcEEEE, symObjAddr: 0x3360, symBinAddr: 0x100006940, symSize: 0x80 }
  - { offset: 0x1C5EA, size: 0x8, addend: 0x0, symName: __ZNK11HumanPlayer8get_nameEv, symObjAddr: 0x33E0, symBinAddr: 0x1000069C0, symSize: 0x20 }
  - { offset: 0x1C60E, size: 0x8, addend: 0x0, symName: __ZN11HumanPlayer8add_cardERK4Card, symObjAddr: 0x3400, symBinAddr: 0x1000069E0, symSize: 0x60 }
  - { offset: 0x1C641, size: 0x8, addend: 0x0, symName: __ZNK11HumanPlayer10make_trumpERK4CardbiR4Suit, symObjAddr: 0x3460, symBinAddr: 0x100006A40, symSize: 0x110 }
  - { offset: 0x1C6B0, size: 0x8, addend: 0x0, symName: __ZN11HumanPlayer15add_and_discardERK4Card, symObjAddr: 0x3570, symBinAddr: 0x100006B50, symSize: 0x1E0 }
  - { offset: 0x1C70F, size: 0x8, addend: 0x0, symName: __ZN11HumanPlayer9lead_cardE4Suit, symObjAddr: 0x3750, symBinAddr: 0x100006D30, symSize: 0x110 }
  - { offset: 0x1C760, size: 0x8, addend: 0x0, symName: __ZN11HumanPlayer9play_cardERK4Card4Suit, symObjAddr: 0x3860, symBinAddr: 0x100006E40, symSize: 0x100 }
  - { offset: 0x1C7C0, size: 0x8, addend: 0x0, symName: __ZN11HumanPlayerD1Ev, symObjAddr: 0x3960, symBinAddr: 0x100006F40, symSize: 0x20 }
  - { offset: 0x1C7EA, size: 0x8, addend: 0x0, symName: __ZN11HumanPlayerD0Ev, symObjAddr: 0x3980, symBinAddr: 0x100006F60, symSize: 0x30 }
  - { offset: 0x1C814, size: 0x8, addend: 0x0, symName: __ZNSt3__16vectorI4CardNS_9allocatorIS1_EEE3endB8ne180100Ev, symObjAddr: 0x39F0, symBinAddr: 0x100006FD0, symSize: 0x30 }
  - { offset: 0x1C83A, size: 0x8, addend: 0x0, symName: __ZNKSt3__16__lessIvvEclB8ne180100I4CardS3_EEbRKT_RKT0_, symObjAddr: 0x4070, symBinAddr: 0x100007650, symSize: 0x30 }
  - { offset: 0x1C88C, size: 0x8, addend: 0x0, symName: __ZNSt3__18_IterOpsINS_17_ClassicAlgPolicyEE9iter_swapB8ne180100IRP4CardS6_EEvOT_OT0_, symObjAddr: 0x40A0, symBinAddr: 0x100007680, symSize: 0x30 }
  - { offset: 0x1C8CE, size: 0x8, addend: 0x0, symName: __ZNSt3__18_IterOpsINS_17_ClassicAlgPolicyEE9iter_swapB8ne180100IRP4CardS5_EEvOT_OT0_, symObjAddr: 0x4590, symBinAddr: 0x100007B70, symSize: 0x30 }
  - { offset: 0x1C910, size: 0x8, addend: 0x0, symName: __ZNSt3__18_IterOpsINS_17_ClassicAlgPolicyEE11__iter_moveB8ne180100IRP4CardLi0EEEDTclsr3stdE4movedeclsr3stdE7declvalIRT_EEEEOS7_, symObjAddr: 0x50E0, symBinAddr: 0x1000086C0, symSize: 0x20 }
  - { offset: 0x1C942, size: 0x8, addend: 0x0, symName: __ZNSt3__18_IterOpsINS_17_ClassicAlgPolicyEE25__validate_iter_referenceB8ne180100IRP4CardEEvv, symObjAddr: 0x5100, symBinAddr: 0x1000086E0, symSize: 0x10 }
  - { offset: 0x1C95F, size: 0x8, addend: 0x0, symName: __ZNSt3__18_IterOpsINS_17_ClassicAlgPolicyEE4nextB8ne180100IP4CardEET_S6_S6_, symObjAddr: 0x5110, symBinAddr: 0x1000086F0, symSize: 0x20 }
  - { offset: 0x1C994, size: 0x8, addend: 0x0, symName: __ZNSt3__18_IterOpsINS_17_ClassicAlgPolicyEE9iter_swapB8ne180100IP4CardS5_EEvOT_OT0_, symObjAddr: 0x5E90, symBinAddr: 0x100009470, symSize: 0x30 }
  - { offset: 0x1C9F4, size: 0x8, addend: 0x0, symName: __ZNSt3__14pairIP4CardbEC1B8ne180100IRS2_RbLi0EEEOT_OT0_, symObjAddr: 0x5EE0, symBinAddr: 0x1000094C0, symSize: 0x30 }
  - { offset: 0x1CA51, size: 0x8, addend: 0x0, symName: __ZNSt3__14pairIP4CardbEC2B8ne180100IRS2_RbLi0EEEOT_OT0_, symObjAddr: 0x5F10, symBinAddr: 0x1000094F0, symSize: 0x30 }
  - { offset: 0x1CAAE, size: 0x8, addend: 0x0, symName: __ZNSt3__118__unwrap_iter_implINS_11__wrap_iterIP4CardEELb1EE8__unwrapB8ne180100ES4_, symObjAddr: 0x5F40, symBinAddr: 0x100009520, symSize: 0x20 }
  - { offset: 0x1CAD5, size: 0x8, addend: 0x0, symName: __ZNSt3__119__to_address_helperINS_11__wrap_iterIP4CardEEvE6__callB8ne180100ERKS4_, symObjAddr: 0x5F80, symBinAddr: 0x100009560, symSize: 0x30 }
  - { offset: 0x1CAF7, size: 0x8, addend: 0x0, symName: __ZNSt3__114pointer_traitsINS_11__wrap_iterIP4CardEEE10to_addressB8ne180100ES4_, symObjAddr: 0x5FB0, symBinAddr: 0x100009590, symSize: 0x30 }
  - { offset: 0x1CB19, size: 0x8, addend: 0x0, symName: __ZNK11HumanPlayer10print_handEv, symObjAddr: 0x5FE0, symBinAddr: 0x1000095C0, symSize: 0xF0 }
  - { offset: 0x1CB78, size: 0x8, addend: 0x0, symName: __ZN11HumanPlayerD2Ev, symObjAddr: 0x7560, symBinAddr: 0x1000096B0, symSize: 0x50 }
  - { offset: 0x1CBA2, size: 0x8, addend: 0x0, symName: __ZNKSt3__112basic_stringIcNS_11char_traitsIcEENS_9allocatorIcEEE4dataB8ne180100Ev, symObjAddr: 0x75B0, symBinAddr: 0x100009700, symSize: 0x30 }
  - { offset: 0x1CBC6, size: 0x8, addend: 0x0, symName: __ZNKSt3__112basic_stringIcNS_11char_traitsIcEENS_9allocatorIcEEE13__get_pointerB8ne180100Ev, symObjAddr: 0x75F0, symBinAddr: 0x100009740, symSize: 0x50 }
  - { offset: 0x1CBEA, size: 0x8, addend: 0x0, symName: __ZNKSt3__112basic_stringIcNS_11char_traitsIcEENS_9allocatorIcEEE18__get_long_pointerB8ne180100Ev, symObjAddr: 0x7640, symBinAddr: 0x100009790, symSize: 0x20 }
  - { offset: 0x1CC0E, size: 0x8, addend: 0x0, symName: __ZNKSt3__112basic_stringIcNS_11char_traitsIcEENS_9allocatorIcEEE19__get_short_pointerB8ne180100Ev, symObjAddr: 0x7660, symBinAddr: 0x1000097B0, symSize: 0x30 }
  - { offset: 0x1CC32, size: 0x8, addend: 0x0, symName: __ZNSt3__114pointer_traitsIPKcE10pointer_toB8ne180100ERS1_, symObjAddr: 0x7690, symBinAddr: 0x1000097E0, symSize: 0xE }
  - { offset: 0x2B805, size: 0x8, addend: 0x0, symName: __ZNSt3__17advanceB8ne180100IPP6PlayerllvEEvRT_T0_, symObjAddr: 0x4CF0, symBinAddr: 0x10000DEA0, symSize: 0x30 }
  - { offset: 0x2CB29, size: 0x8, addend: 0x0, symName: __ZNSt3__17advanceB8ne180100IPKillvEEvRT_T0_, symObjAddr: 0x8DE0, symBinAddr: 0x10000FB40, symSize: 0x30 }
  - { offset: 0x2D658, size: 0x8, addend: 0x0, symName: __ZNSt3__1neB8ne180100IcNS_11char_traitsIcEENS_9allocatorIcEEEEbRKNS_12basic_stringIT_T0_T1_EEPKS6_, symObjAddr: 0x1BF0, symBinAddr: 0x10000B200, symSize: 0x30 }
  - { offset: 0x2DF2F, size: 0x8, addend: 0x0, symName: __ZNSt3__122__make_exception_guardB8ne180100INS_6vectorIiNS_9allocatorIiEEE16__destroy_vectorEEENS_28__exception_guard_exceptionsIT_EES7_, symObjAddr: 0x3010, symBinAddr: 0x10000C580, symSize: 0x40 }
  - { offset: 0x2DF64, size: 0x8, addend: 0x0, symName: __ZNSt3__119__allocate_at_leastB8ne180100INS_9allocatorIiEEEENS_19__allocation_resultINS_16allocator_traitsIT_E7pointerEEERS5_m, symObjAddr: 0x33F0, symBinAddr: 0x10000C960, symSize: 0x40 }
  - { offset: 0x2DFA7, size: 0x8, addend: 0x0, symName: __ZNSt3__130__uninitialized_allocator_copyB8ne180100INS_9allocatorIiEEPKiS4_PiEET2_RT_T0_T1_S6_, symObjAddr: 0x38B0, symBinAddr: 0x10000CB60, symSize: 0x80 }
  - { offset: 0x2E044, size: 0x8, addend: 0x0, symName: __ZNSt3__114__unwrap_rangeB8ne180100IPKiS2_EENS_4pairIT0_S4_EET_S6_, symObjAddr: 0x3990, symBinAddr: 0x10000CC40, symSize: 0x50 }
  - { offset: 0x2E090, size: 0x8, addend: 0x0, symName: __ZNSt3__135__uninitialized_allocator_copy_implB8ne180100INS_9allocatorIiEEKiiiLPv0EEEPT2_RT_PT0_SA_S6_, symObjAddr: 0x39E0, symBinAddr: 0x10000CC90, symSize: 0x30 }
  - { offset: 0x2E113, size: 0x8, addend: 0x0, symName: __ZNSt3__113__unwrap_iterB8ne180100IPiNS_18__unwrap_iter_implIS1_Lb1EEELi0EEEDTclsrT0_8__unwrapclsr3stdE7declvalIT_EEEES5_, symObjAddr: 0x3A10, symBinAddr: 0x10000CCC0, symSize: 0x20 }
  - { offset: 0x2E158, size: 0x8, addend: 0x0, symName: __ZNSt3__113__rewrap_iterB8ne180100IPiS1_NS_18__unwrap_iter_implIS1_Lb1EEEEET_S4_T0_, symObjAddr: 0x3A30, symBinAddr: 0x10000CCE0, symSize: 0x40 }
  - { offset: 0x2E1AD, size: 0x8, addend: 0x0, symName: __ZNSt3__19make_pairB8ne180100IPKiS2_EENS_4pairINS_18__unwrap_ref_decayIT_E4typeENS4_IT0_E4typeEEEOS5_OS8_, symObjAddr: 0x3A70, symBinAddr: 0x10000CD20, symSize: 0x30 }
  - { offset: 0x2E1FC, size: 0x8, addend: 0x0, symName: __ZNSt3__113__unwrap_iterB8ne180100IPKiNS_18__unwrap_iter_implIS2_Lb1EEELi0EEEDTclsrT0_8__unwrapclsr3stdE7declvalIT_EEEES6_, symObjAddr: 0x3AA0, symBinAddr: 0x10000CD50, symSize: 0x20 }
  - { offset: 0x2E369, size: 0x8, addend: 0x0, symName: __ZNSt3__112__to_addressB8ne180100IKiEEPT_S3_, symObjAddr: 0x3B40, symBinAddr: 0x10000CDF0, symSize: 0x10 }
  - { offset: 0x2E39E, size: 0x8, addend: 0x0, symName: __ZNSt3__14copyB8ne180100IPKiPiEET0_T_S5_S4_, symObjAddr: 0x3B50, symBinAddr: 0x10000CE00, symSize: 0x40 }
  - { offset: 0x2E3F8, size: 0x8, addend: 0x0, symName: __ZNSt3__16__copyB8ne180100INS_17_ClassicAlgPolicyEPKiS3_PiEENS_4pairIT0_T2_EES6_T1_S7_, symObjAddr: 0x3B90, symBinAddr: 0x10000CE40, symSize: 0x40 }
  - { offset: 0x2E464, size: 0x8, addend: 0x0, symName: __ZNSt3__123__dispatch_copy_or_moveB8ne180100INS_17_ClassicAlgPolicyENS_11__copy_loopIS1_EENS_14__copy_trivialEPKiS6_PiEENS_4pairIT2_T4_EES9_T3_SA_, symObjAddr: 0x3BD0, symBinAddr: 0x10000CE80, symSize: 0x40 }
  - { offset: 0x2E4E2, size: 0x8, addend: 0x0, symName: __ZNSt3__121__unwrap_and_dispatchB8ne180100INS_10__overloadINS_11__copy_loopINS_17_ClassicAlgPolicyEEENS_14__copy_trivialEEEPKiS8_PiLi0EEENS_4pairIT0_T2_EESB_T1_SC_, symObjAddr: 0x3C10, symBinAddr: 0x10000CEC0, symSize: 0xB0 }
  - { offset: 0x2E6FB, size: 0x8, addend: 0x0, symName: __ZNSt3__19make_pairB8ne180100IPKiPiEENS_4pairINS_18__unwrap_ref_decayIT_E4typeENS5_IT0_E4typeEEEOS6_OS9_, symObjAddr: 0x3D00, symBinAddr: 0x10000CFB0, symSize: 0x30 }
  - { offset: 0x2E74A, size: 0x8, addend: 0x0, symName: __ZNSt3__114__rewrap_rangeB8ne180100IPKiS2_EET_S3_T0_, symObjAddr: 0x3D30, symBinAddr: 0x10000CFE0, symSize: 0x30 }
  - { offset: 0x2E796, size: 0x8, addend: 0x0, symName: __ZNSt3__119__copy_trivial_implB8ne180100IKiiEENS_4pairIPT_PT0_EES4_S4_S6_, symObjAddr: 0x3D60, symBinAddr: 0x10000D010, symSize: 0x70 }
  - { offset: 0x2E7FE, size: 0x8, addend: 0x0, symName: __ZNSt3__119__constexpr_memmoveB8ne180100IiKiLi0EEEPT_S3_PT0_NS_15__element_countE, symObjAddr: 0x3DD0, symBinAddr: 0x10000D080, symSize: 0x50 }
  - { offset: 0x2E86D, size: 0x8, addend: 0x0, symName: __ZNSt3__19make_pairB8ne180100IRPKiPiEENS_4pairINS_18__unwrap_ref_decayIT_E4typeENS6_IT0_E4typeEEEOS7_OSA_, symObjAddr: 0x3E20, symBinAddr: 0x10000D0D0, symSize: 0x30 }
  - { offset: 0x2E8BC, size: 0x8, addend: 0x0, symName: __ZNSt3__113__rewrap_iterB8ne180100IPKiS2_NS_18__unwrap_iter_implIS2_Lb1EEEEET_S5_T0_, symObjAddr: 0x3F10, symBinAddr: 0x10000D1C0, symSize: 0x40 }
  - { offset: 0x2E964, size: 0x8, addend: 0x0, symName: __ZNSt3__112__to_addressB8ne180100IiEEPT_S2_, symObjAddr: 0x3FC0, symBinAddr: 0x10000D270, symSize: 0x10 }
  - { offset: 0x2E999, size: 0x8, addend: 0x0, symName: __ZNSt3__112__to_addressB8ne180100IP6PlayerEEPT_S4_, symObjAddr: 0x4650, symBinAddr: 0x10000D800, symSize: 0x10 }
  - { offset: 0x2E9CE, size: 0x8, addend: 0x0, symName: __ZNSt3__18distanceB8ne180100IPP6PlayerEENS_15iterator_traitsIT_E15difference_typeES5_S5_, symObjAddr: 0x4970, symBinAddr: 0x10000DB20, symSize: 0x30 }
  - { offset: 0x2EA11, size: 0x8, addend: 0x0, symName: __ZNSt3__14nextB8ne180100IPP6PlayerLi0EEET_S4_NS_15iterator_traitsIS4_E15difference_typeE, symObjAddr: 0x49A0, symBinAddr: 0x10000DB50, symSize: 0x30 }
  - { offset: 0x2EA5B, size: 0x8, addend: 0x0, symName: __ZNSt3__14copyB8ne180100IPP6PlayerS3_EET0_T_S5_S4_, symObjAddr: 0x49D0, symBinAddr: 0x10000DB80, symSize: 0x40 }
  - { offset: 0x2EAB5, size: 0x8, addend: 0x0, symName: __ZNSt3__16__copyB8ne180100INS_17_ClassicAlgPolicyEPP6PlayerS4_S4_EENS_4pairIT0_T2_EES6_T1_S7_, symObjAddr: 0x4AA0, symBinAddr: 0x10000DC50, symSize: 0x40 }
  - { offset: 0x2EB21, size: 0x8, addend: 0x0, symName: __ZNSt3__121__convert_to_integralB8ne180100El, symObjAddr: 0x4D20, symBinAddr: 0x10000DED0, symSize: 0x10 }
  - { offset: 0x2EB4E, size: 0x8, addend: 0x0, symName: __ZNSt3__19__advanceB8ne180100IPP6PlayerEEvRT_NS_15iterator_traitsIS4_E15difference_typeENS_26random_access_iterator_tagE, symObjAddr: 0x4D30, symBinAddr: 0x10000DEE0, symSize: 0x20 }
  - { offset: 0x2EB97, size: 0x8, addend: 0x0, symName: __ZNSt3__130__uninitialized_allocator_copyB8ne180100INS_9allocatorIP6PlayerEEPS3_S5_S5_EET2_RT_T0_T1_S6_, symObjAddr: 0x4D80, symBinAddr: 0x10000DF30, symSize: 0x80 }
  - { offset: 0x2EC34, size: 0x8, addend: 0x0, symName: __ZNSt3__114__unwrap_rangeB8ne180100IPP6PlayerS3_EENS_4pairIT0_S5_EET_S7_, symObjAddr: 0x4E60, symBinAddr: 0x10000E010, symSize: 0x50 }
  - { offset: 0x2EC80, size: 0x8, addend: 0x0, symName: __ZNSt3__135__uninitialized_allocator_copy_implB8ne180100INS_9allocatorIP6PlayerEES3_S3_S3_LPv0EEEPT2_RT_PT0_SB_S7_, symObjAddr: 0x4EB0, symBinAddr: 0x10000E060, symSize: 0x30 }
  - { offset: 0x2ED03, size: 0x8, addend: 0x0, symName: __ZNSt3__113__unwrap_iterB8ne180100IPP6PlayerNS_18__unwrap_iter_implIS3_Lb1EEELi0EEEDTclsrT0_8__unwrapclsr3stdE7declvalIT_EEEES7_, symObjAddr: 0x4EE0, symBinAddr: 0x10000E090, symSize: 0x20 }
  - { offset: 0x2ED48, size: 0x8, addend: 0x0, symName: __ZNSt3__113__rewrap_iterB8ne180100IPP6PlayerS3_NS_18__unwrap_iter_implIS3_Lb1EEEEET_S6_T0_, symObjAddr: 0x4F00, symBinAddr: 0x10000E0B0, symSize: 0x40 }
  - { offset: 0x2ED9D, size: 0x8, addend: 0x0, symName: __ZNSt3__19make_pairB8ne180100IPP6PlayerS3_EENS_4pairINS_18__unwrap_ref_decayIT_E4typeENS5_IT0_E4typeEEEOS6_OS9_, symObjAddr: 0x4F40, symBinAddr: 0x10000E0F0, symSize: 0x30 }
  - { offset: 0x2EF44, size: 0x8, addend: 0x0, symName: __ZNSt3__123__dispatch_copy_or_moveB8ne180100INS_17_ClassicAlgPolicyENS_11__copy_loopIS1_EENS_14__copy_trivialEPP6PlayerS7_S7_EENS_4pairIT2_T4_EES9_T3_SA_, symObjAddr: 0x5060, symBinAddr: 0x10000E210, symSize: 0x40 }
  - { offset: 0x2EFC2, size: 0x8, addend: 0x0, symName: __ZNSt3__121__unwrap_and_dispatchB8ne180100INS_10__overloadINS_11__copy_loopINS_17_ClassicAlgPolicyEEENS_14__copy_trivialEEEPP6PlayerS9_S9_Li0EEENS_4pairIT0_T2_EESB_T1_SC_, symObjAddr: 0x50A0, symBinAddr: 0x10000E250, symSize: 0xB0 }
  - { offset: 0x2F052, size: 0x8, addend: 0x0, symName: __ZNSt3__114__rewrap_rangeB8ne180100IPP6PlayerS3_EET_S4_T0_, symObjAddr: 0x5190, symBinAddr: 0x10000E340, symSize: 0x30 }
  - { offset: 0x2F09E, size: 0x8, addend: 0x0, symName: __ZNSt3__119__copy_trivial_implB8ne180100IP6PlayerS2_EENS_4pairIPT_PT0_EES5_S5_S7_, symObjAddr: 0x51C0, symBinAddr: 0x10000E370, symSize: 0x70 }
  - { offset: 0x2F106, size: 0x8, addend: 0x0, symName: __ZNSt3__119__constexpr_memmoveB8ne180100IP6PlayerS2_Li0EEEPT_S4_PT0_NS_15__element_countE, symObjAddr: 0x5230, symBinAddr: 0x10000E3E0, symSize: 0x50 }
  - { offset: 0x2F175, size: 0x8, addend: 0x0, symName: __ZNSt3__19make_pairB8ne180100IRPP6PlayerS3_EENS_4pairINS_18__unwrap_ref_decayIT_E4typeENS6_IT0_E4typeEEEOS7_OSA_, symObjAddr: 0x5280, symBinAddr: 0x10000E430, symSize: 0x30 }
  - { offset: 0x2F1C4, size: 0x8, addend: 0x0, symName: __ZNSt3__119__allocate_at_leastB8ne180100INS_9allocatorIP6PlayerEEEENS_19__allocation_resultINS_16allocator_traitsIT_E7pointerEEERS7_m, symObjAddr: 0x5430, symBinAddr: 0x10000E5E0, symSize: 0x40 }
  - { offset: 0x2F207, size: 0x8, addend: 0x0, symName: __ZNSt3__110__distanceB8ne180100IPP6PlayerEENS_15iterator_traitsIT_E15difference_typeES5_S5_NS_26random_access_iterator_tagE, symObjAddr: 0x55E0, symBinAddr: 0x10000E710, symSize: 0x20 }
  - { offset: 0x2F406, size: 0x8, addend: 0x0, symName: __ZNSt3__142__uninitialized_allocator_move_if_noexceptB8ne180100INS_9allocatorIiEENS_16reverse_iteratorIPiEES5_ivEET1_RT_T0_S9_S6_, symObjAddr: 0x8010, symBinAddr: 0x10000ED70, symSize: 0x70 }
  - { offset: 0x2F483, size: 0x8, addend: 0x0, symName: __ZNSt3__14swapB8ne180100IPiEENS_9enable_ifIXaasr21is_move_constructibleIT_EE5valuesr18is_move_assignableIS3_EE5valueEvE4typeERS3_S6_, symObjAddr: 0x80D0, symBinAddr: 0x10000EE30, symSize: 0x40 }
  - { offset: 0x2F4D4, size: 0x8, addend: 0x0, symName: __ZNSt3__14moveB8ne180100INS_16reverse_iteratorIPiEES3_EET0_T_S5_S4_, symObjAddr: 0x8110, symBinAddr: 0x10000EE70, symSize: 0x80 }
  - { offset: 0x2F52E, size: 0x8, addend: 0x0, symName: __ZNSt3__16__moveB8ne180100INS_17_ClassicAlgPolicyENS_16reverse_iteratorIPiEES4_S4_EENS_4pairIT0_T2_EES6_T1_S7_, symObjAddr: 0x8190, symBinAddr: 0x10000EEF0, symSize: 0x90 }
  - { offset: 0x2F59A, size: 0x8, addend: 0x0, symName: __ZNSt3__123__dispatch_copy_or_moveB8ne180100INS_17_ClassicAlgPolicyENS_11__move_loopIS1_EENS_14__move_trivialENS_16reverse_iteratorIPiEES7_S7_EENS_4pairIT2_T4_EES9_T3_SA_, symObjAddr: 0x8220, symBinAddr: 0x10000EF80, symSize: 0x90 }
  - { offset: 0x2F618, size: 0x8, addend: 0x0, symName: __ZNSt3__121__unwrap_and_dispatchB8ne180100INS_10__overloadINS_11__move_loopINS_17_ClassicAlgPolicyEEENS_14__move_trivialEEENS_16reverse_iteratorIPiEES9_S9_Li0EEENS_4pairIT0_T2_EESB_T1_SC_, symObjAddr: 0x82B0, symBinAddr: 0x10000F010, symSize: 0x210 }
  - { offset: 0x2F6A8, size: 0x8, addend: 0x0, symName: __ZNSt3__114__unwrap_rangeB8ne180100INS_16reverse_iteratorIPiEES3_EENS_4pairIT0_S5_EET_S7_, symObjAddr: 0x84C0, symBinAddr: 0x10000F220, symSize: 0x90 }
  - { offset: 0x2F7C9, size: 0x8, addend: 0x0, symName: __ZNSt3__113__unwrap_iterB8ne180100INS_16reverse_iteratorIPiEENS_18__unwrap_iter_implIS3_Lb0EEELi0EEEDTclsrT0_8__unwrapclsr3stdE7declvalIT_EEEES7_, symObjAddr: 0x85F0, symBinAddr: 0x10000F350, symSize: 0x40 }
  - { offset: 0x2F80E, size: 0x8, addend: 0x0, symName: __ZNSt3__19make_pairB8ne180100INS_16reverse_iteratorIPiEES3_EENS_4pairINS_18__unwrap_ref_decayIT_E4typeENS5_IT0_E4typeEEEOS6_OS9_, symObjAddr: 0x8630, symBinAddr: 0x10000F390, symSize: 0x30 }
  - { offset: 0x2F85D, size: 0x8, addend: 0x0, symName: __ZNSt3__114__rewrap_rangeB8ne180100INS_16reverse_iteratorIPiEES3_EET_S4_T0_, symObjAddr: 0x8660, symBinAddr: 0x10000F3C0, symSize: 0x60 }
  - { offset: 0x2F8A9, size: 0x8, addend: 0x0, symName: __ZNSt3__113__rewrap_iterB8ne180100INS_16reverse_iteratorIPiEES3_NS_18__unwrap_iter_implIS3_Lb0EEEEET_S6_T0_, symObjAddr: 0x86C0, symBinAddr: 0x10000F420, symSize: 0x70 }
  - { offset: 0x2F8FE, size: 0x8, addend: 0x0, symName: __ZNSt3__1neB8ne180100IPiS1_EEbRKNS_16reverse_iteratorIT_EERKNS2_IT0_EE, symObjAddr: 0x8730, symBinAddr: 0x10000F490, symSize: 0x40 }
  - { offset: 0x2F99D, size: 0x8, addend: 0x0, symName: __ZNSt3__18distanceB8ne180100IPKiEENS_15iterator_traitsIT_E15difference_typeES4_S4_, symObjAddr: 0x8CA0, symBinAddr: 0x10000FA00, symSize: 0x30 }
  - { offset: 0x2F9E0, size: 0x8, addend: 0x0, symName: __ZNSt3__14nextB8ne180100IPKiLi0EEET_S3_NS_15iterator_traitsIS3_E15difference_typeE, symObjAddr: 0x8CD0, symBinAddr: 0x10000FA30, symSize: 0x30 }
  - { offset: 0x2FA2B, size: 0x8, addend: 0x0, symName: __ZNSt3__19__advanceB8ne180100IPKiEEvRT_NS_15iterator_traitsIS3_E15difference_typeENS_26random_access_iterator_tagE, symObjAddr: 0x8E10, symBinAddr: 0x10000FB70, symSize: 0x20 }
  - { offset: 0x2FA74, size: 0x8, addend: 0x0, symName: __ZNSt3__110__distanceB8ne180100IPKiEENS_15iterator_traitsIT_E15difference_typeES4_S4_NS_26random_access_iterator_tagE, symObjAddr: 0x8E80, symBinAddr: 0x10000FBE0, symSize: 0x20 }
  - { offset: 0x2FAC1, size: 0x8, addend: 0x0, symName: __ZNSt3__142__uninitialized_allocator_move_if_noexceptB8ne180100INS_9allocatorIP6PlayerEENS_16reverse_iteratorIPS3_EES7_S3_vEET1_RT_T0_SB_S8_, symObjAddr: 0x9500, symBinAddr: 0x100010260, symSize: 0x70 }
  - { offset: 0x2FB3E, size: 0x8, addend: 0x0, symName: __ZNSt3__14swapB8ne180100IPP6PlayerEENS_9enable_ifIXaasr21is_move_constructibleIT_EE5valuesr18is_move_assignableIS5_EE5valueEvE4typeERS5_S8_, symObjAddr: 0x95C0, symBinAddr: 0x100010320, symSize: 0x40 }
  - { offset: 0x2FB8F, size: 0x8, addend: 0x0, symName: __ZNSt3__14moveB8ne180100INS_16reverse_iteratorIPP6PlayerEES5_EET0_T_S7_S6_, symObjAddr: 0x9600, symBinAddr: 0x100010360, symSize: 0x80 }
  - { offset: 0x2FBE9, size: 0x8, addend: 0x0, symName: __ZNSt3__16__moveB8ne180100INS_17_ClassicAlgPolicyENS_16reverse_iteratorIPP6PlayerEES6_S6_EENS_4pairIT0_T2_EES8_T1_S9_, symObjAddr: 0x9680, symBinAddr: 0x1000103E0, symSize: 0x90 }
  - { offset: 0x2FC55, size: 0x8, addend: 0x0, symName: __ZNSt3__123__dispatch_copy_or_moveB8ne180100INS_17_ClassicAlgPolicyENS_11__move_loopIS1_EENS_14__move_trivialENS_16reverse_iteratorIPP6PlayerEES9_S9_EENS_4pairIT2_T4_EESB_T3_SC_, symObjAddr: 0x9710, symBinAddr: 0x100010470, symSize: 0x90 }
  - { offset: 0x2FCD3, size: 0x8, addend: 0x0, symName: __ZNSt3__121__unwrap_and_dispatchB8ne180100INS_10__overloadINS_11__move_loopINS_17_ClassicAlgPolicyEEENS_14__move_trivialEEENS_16reverse_iteratorIPP6PlayerEESB_SB_Li0EEENS_4pairIT0_T2_EESD_T1_SE_, symObjAddr: 0x97A0, symBinAddr: 0x100010500, symSize: 0x210 }
  - { offset: 0x2FD63, size: 0x8, addend: 0x0, symName: __ZNSt3__114__unwrap_rangeB8ne180100INS_16reverse_iteratorIPP6PlayerEES5_EENS_4pairIT0_S7_EET_S9_, symObjAddr: 0x99B0, symBinAddr: 0x100010710, symSize: 0x90 }
  - { offset: 0x2FE84, size: 0x8, addend: 0x0, symName: __ZNSt3__113__unwrap_iterB8ne180100INS_16reverse_iteratorIPP6PlayerEENS_18__unwrap_iter_implIS5_Lb0EEELi0EEEDTclsrT0_8__unwrapclsr3stdE7declvalIT_EEEES9_, symObjAddr: 0x9AE0, symBinAddr: 0x100010840, symSize: 0x40 }
  - { offset: 0x2FEC9, size: 0x8, addend: 0x0, symName: __ZNSt3__19make_pairB8ne180100INS_16reverse_iteratorIPP6PlayerEES5_EENS_4pairINS_18__unwrap_ref_decayIT_E4typeENS7_IT0_E4typeEEEOS8_OSB_, symObjAddr: 0x9B20, symBinAddr: 0x100010880, symSize: 0x30 }
  - { offset: 0x2FF18, size: 0x8, addend: 0x0, symName: __ZNSt3__114__rewrap_rangeB8ne180100INS_16reverse_iteratorIPP6PlayerEES5_EET_S6_T0_, symObjAddr: 0x9B50, symBinAddr: 0x1000108B0, symSize: 0x60 }
  - { offset: 0x2FF64, size: 0x8, addend: 0x0, symName: __ZNSt3__113__rewrap_iterB8ne180100INS_16reverse_iteratorIPP6PlayerEES5_NS_18__unwrap_iter_implIS5_Lb0EEEEET_S8_T0_, symObjAddr: 0x9BB0, symBinAddr: 0x100010910, symSize: 0x70 }
  - { offset: 0x2FFB9, size: 0x8, addend: 0x0, symName: __ZNSt3__1neB8ne180100IPP6PlayerS3_EEbRKNS_16reverse_iteratorIT_EERKNS4_IT0_EE, symObjAddr: 0x9C20, symBinAddr: 0x100010980, symSize: 0x40 }
  - { offset: 0x30058, size: 0x8, addend: 0x0, symName: __ZNSt3__122__make_exception_guardB8ne180100INS_6vectorIP6PlayerNS_9allocatorIS3_EEE16__destroy_vectorEEENS_28__exception_guard_exceptionsIT_EES9_, symObjAddr: 0xA160, symBinAddr: 0x100010EC0, symSize: 0x40 }
  - { offset: 0x319A4, size: 0x8, addend: 0x0, symName: __ZNSt3__16vectorIiNS_9allocatorIiEEE26__swap_out_circular_bufferERNS_14__split_bufferIiRS2_EE, symObjAddr: 0x7CD0, symBinAddr: 0x10000EA30, symSize: 0x120 }
  - { offset: 0x319F9, size: 0x8, addend: 0x0, symName: __ZNSt3__16vectorIP6PlayerNS_9allocatorIS2_EEE26__swap_out_circular_bufferERNS_14__split_bufferIS2_RS4_EE, symObjAddr: 0x91C0, symBinAddr: 0x10000FF20, symSize: 0x120 }
  - { offset: 0x31D6A, size: 0x8, addend: 0x0, symName: __ZN4GameC2ENSt3__16vectorIP6PlayerNS0_9allocatorIS3_EEEER4Packib, symObjAddr: 0x0, symBinAddr: 0x1000097F0, symSize: 0x200 }
  - { offset: 0x31DCE, size: 0x8, addend: 0x0, symName: __ZNSt3__16vectorIP6PlayerNS_9allocatorIS2_EEEC1B8ne180100Ev, symObjAddr: 0x200, symBinAddr: 0x1000099F0, symSize: 0x20 }
  - { offset: 0x31DF7, size: 0x8, addend: 0x0, symName: __ZNSt3__16vectorIiNS_9allocatorIiEEEC1B8ne180100ESt16initializer_listIiE, symObjAddr: 0x220, symBinAddr: 0x100009A10, symSize: 0x30 }
  - { offset: 0x31E30, size: 0x8, addend: 0x0, symName: __ZNSt3__16vectorIP6PlayerNS_9allocatorIS2_EEEaSB8ne180100ERKS5_, symObjAddr: 0x250, symBinAddr: 0x100009A40, symSize: 0x60 }
  - { offset: 0x31E65, size: 0x8, addend: 0x0, symName: __ZNSt3__16vectorIiNS_9allocatorIiEEED1B8ne180100Ev, symObjAddr: 0x2B0, symBinAddr: 0x100009AA0, symSize: 0x20 }
  - { offset: 0x31E8D, size: 0x8, addend: 0x0, symName: __ZNSt3__16vectorIP6PlayerNS_9allocatorIS2_EEED1B8ne180100Ev, symObjAddr: 0x2D0, symBinAddr: 0x100009AC0, symSize: 0x20 }
  - { offset: 0x31EB6, size: 0x8, addend: 0x0, symName: __ZN4GameC1ENSt3__16vectorIP6PlayerNS0_9allocatorIS3_EEEER4Packib, symObjAddr: 0x2F0, symBinAddr: 0x100009AE0, symSize: 0x40 }
  - { offset: 0x31F19, size: 0x8, addend: 0x0, symName: __ZN4Game4playEv, symObjAddr: 0x330, symBinAddr: 0x100009B20, symSize: 0x130 }
  - { offset: 0x31F69, size: 0x8, addend: 0x0, symName: __ZN4Game11game_isoverEv, symObjAddr: 0x4D0, symBinAddr: 0x100009C50, symSize: 0xA0 }
  - { offset: 0x31FAB, size: 0x8, addend: 0x0, symName: __ZN4Game4dealEi, symObjAddr: 0x570, symBinAddr: 0x100009CF0, symSize: 0x220 }
  - { offset: 0x32095, size: 0x8, addend: 0x0, symName: __ZN4Game10print_handEi, symObjAddr: 0x790, symBinAddr: 0x100009F10, symSize: 0xD0 }
  - { offset: 0x320C9, size: 0x8, addend: 0x0, symName: __ZN4Game10make_trumpEi, symObjAddr: 0x860, symBinAddr: 0x100009FE0, symSize: 0x1C0 }
  - { offset: 0x32151, size: 0x8, addend: 0x0, symName: __ZN4Game9play_handEii, symObjAddr: 0xA20, symBinAddr: 0x10000A1A0, symSize: 0x470 }
  - { offset: 0x32254, size: 0x8, addend: 0x0, symName: __ZN4Game11find_scoresEv, symObjAddr: 0xE90, symBinAddr: 0x10000A610, symSize: 0x900 }
  - { offset: 0x3229F, size: 0x8, addend: 0x0, symName: __ZN4Game9DoshuffleEv, symObjAddr: 0x1790, symBinAddr: 0x10000AF10, symSize: 0x20 }
  - { offset: 0x322C4, size: 0x8, addend: 0x0, symName: __ZN4Game15find_GamewinnerEv, symObjAddr: 0x17B0, symBinAddr: 0x10000AF30, symSize: 0x190 }
  - { offset: 0x322EA, size: 0x8, addend: 0x0, symName: __ZNSt3__16vectorIP6PlayerNS_9allocatorIS2_EEEixB8ne180100Em, symObjAddr: 0x19D0, symBinAddr: 0x10000B0C0, symSize: 0x20 }
  - { offset: 0x3231F, size: 0x8, addend: 0x0, symName: __ZNSt3__16vectorIiNS_9allocatorIiEEEixB8ne180100Em, symObjAddr: 0x19F0, symBinAddr: 0x10000B0E0, symSize: 0x20 }
  - { offset: 0x32354, size: 0x8, addend: 0x0, symName: __ZNSt3__16vectorIiNS_9allocatorIiEEEC1B8ne180100Ev, symObjAddr: 0x1A30, symBinAddr: 0x10000B100, symSize: 0x20 }
  - { offset: 0x3237C, size: 0x8, addend: 0x0, symName: __ZNSt3__16vectorIiNS_9allocatorIiEEE9push_backB8ne180100ERKi, symObjAddr: 0x1AF0, symBinAddr: 0x10000B120, symSize: 0x80 }
  - { offset: 0x323C5, size: 0x8, addend: 0x0, symName: __ZNSt3__112basic_stringIcNS_11char_traitsIcEENS_9allocatorIcEEEC1B8ne180100ILi0EEEPKc, symObjAddr: 0x1B90, symBinAddr: 0x10000B1A0, symSize: 0x30 }
  - { offset: 0x32403, size: 0x8, addend: 0x0, symName: __ZNSt3__112basic_stringIcNS_11char_traitsIcEENS_9allocatorIcEEEaSB8ne180100EPKc, symObjAddr: 0x1BC0, symBinAddr: 0x10000B1D0, symSize: 0x30 }
  - { offset: 0x32436, size: 0x8, addend: 0x0, symName: __ZNSt3__16vectorIiNS_9allocatorIiEEEaSB8ne180100ESt16initializer_listIiE, symObjAddr: 0x1C20, symBinAddr: 0x10000B230, symSize: 0x50 }
  - { offset: 0x3246A, size: 0x8, addend: 0x0, symName: _main, symObjAddr: 0x1C70, symBinAddr: 0x10000B280, symSize: 0xD10 }
  - { offset: 0x327DF, size: 0x8, addend: 0x0, symName: __ZNSt3__114basic_ifstreamIcNS_11char_traitsIcEEEC1EPKcj, symObjAddr: 0x2980, symBinAddr: 0x10000BF90, symSize: 0x160 }
  - { offset: 0x32827, size: 0x8, addend: 0x0, symName: __ZNKSt3__114basic_ifstreamIcNS_11char_traitsIcEEE7is_openEv, symObjAddr: 0x2AE0, symBinAddr: 0x10000C0F0, symSize: 0x30 }
  - { offset: 0x3284D, size: 0x8, addend: 0x0, symName: __ZNSt3__16vectorIP6PlayerNS_9allocatorIS2_EEE9push_backB8ne180100EOS2_, symObjAddr: 0x2BA0, symBinAddr: 0x10000C120, symSize: 0x80 }
  - { offset: 0x32892, size: 0x8, addend: 0x0, symName: __ZNSt3__16vectorIP6PlayerNS_9allocatorIS2_EEEC1ERKS5_, symObjAddr: 0x2C20, symBinAddr: 0x10000C1A0, symSize: 0x30 }
  - { offset: 0x328CB, size: 0x8, addend: 0x0, symName: __ZNKSt3__16vectorIP6PlayerNS_9allocatorIS2_EEE4sizeB8ne180100Ev, symObjAddr: 0x2C50, symBinAddr: 0x10000C1D0, symSize: 0x20 }
  - { offset: 0x328EF, size: 0x8, addend: 0x0, symName: __ZN4GameD1Ev, symObjAddr: 0x2C70, symBinAddr: 0x10000C1F0, symSize: 0x20 }
  - { offset: 0x3291F, size: 0x8, addend: 0x0, symName: __ZNSt3__114basic_ifstreamIcNS_11char_traitsIcEEED1Ev, symObjAddr: 0x2C90, symBinAddr: 0x10000C210, symSize: 0x40 }
  - { offset: 0x3294A, size: 0x8, addend: 0x0, symName: __ZN4GameD2Ev, symObjAddr: 0x2CD0, symBinAddr: 0x10000C250, symSize: 0x40 }
  - { offset: 0x32975, size: 0x8, addend: 0x0, symName: __ZNSt3__114basic_ifstreamIcNS_11char_traitsIcEEED2Ev, symObjAddr: 0x2D10, symBinAddr: 0x10000C290, symSize: 0x60 }
  - { offset: 0x329AD, size: 0x8, addend: 0x0, symName: __ZTv0_n24_NSt3__114basic_ifstreamIcNS_11char_traitsIcEEED1Ev, symObjAddr: 0x2D70, symBinAddr: 0x10000C2F0, symSize: 0x20 }
  - { offset: 0x329C3, size: 0x8, addend: 0x0, symName: __ZNSt3__16vectorIP6PlayerNS_9allocatorIS2_EEEC2B8ne180100Ev, symObjAddr: 0x2D90, symBinAddr: 0x10000C310, symSize: 0x50 }
  - { offset: 0x329F5, size: 0x8, addend: 0x0, symName: __ZNSt3__117__compressed_pairIPP6PlayerNS_9allocatorIS2_EEEC1B8ne180100IDnNS_18__default_init_tagEEEOT_OT0_, symObjAddr: 0x2DE0, symBinAddr: 0x10000C360, symSize: 0x30 }
  - { offset: 0x32A4B, size: 0x8, addend: 0x0, symName: __ZNSt3__117__compressed_pairIPP6PlayerNS_9allocatorIS2_EEEC2B8ne180100IDnNS_18__default_init_tagEEEOT_OT0_, symObjAddr: 0x2E20, symBinAddr: 0x10000C390, symSize: 0x40 }
  - { offset: 0x32AA1, size: 0x8, addend: 0x0, symName: __ZNSt3__122__compressed_pair_elemIPP6PlayerLi0ELb0EEC2B8ne180100IDnvEEOT_, symObjAddr: 0x2E60, symBinAddr: 0x10000C3D0, symSize: 0x20 }
  - { offset: 0x32AE1, size: 0x8, addend: 0x0, symName: __ZNSt3__122__compressed_pair_elemINS_9allocatorIP6PlayerEELi1ELb1EEC2B8ne180100ENS_18__default_init_tagE, symObjAddr: 0x2E80, symBinAddr: 0x10000C3F0, symSize: 0x20 }
  - { offset: 0x32B13, size: 0x8, addend: 0x0, symName: __ZNSt3__19allocatorIP6PlayerEC2B8ne180100Ev, symObjAddr: 0x2EA0, symBinAddr: 0x10000C410, symSize: 0x20 }
  - { offset: 0x32B3B, size: 0x8, addend: 0x0, symName: __ZNSt3__116__non_trivial_ifILb1ENS_9allocatorIP6PlayerEEEC2B8ne180100Ev, symObjAddr: 0x2EC0, symBinAddr: 0x10000C430, symSize: 0x10 }
  - { offset: 0x32B64, size: 0x8, addend: 0x0, symName: __ZNSt3__16vectorIiNS_9allocatorIiEEEC2B8ne180100ESt16initializer_listIiE, symObjAddr: 0x2ED0, symBinAddr: 0x10000C440, symSize: 0x110 }
  - { offset: 0x32BB2, size: 0x8, addend: 0x0, symName: __ZNSt3__117__compressed_pairIPiNS_9allocatorIiEEEC1B8ne180100IDnNS_18__default_init_tagEEEOT_OT0_, symObjAddr: 0x2FE0, symBinAddr: 0x10000C550, symSize: 0x30 }
  - { offset: 0x32C08, size: 0x8, addend: 0x0, symName: __ZNSt3__16vectorIiNS_9allocatorIiEEE16__destroy_vectorC1B8ne180100ERS3_, symObjAddr: 0x3050, symBinAddr: 0x10000C5C0, symSize: 0x30 }
  - { offset: 0x32C3F, size: 0x8, addend: 0x0, symName: __ZNKSt16initializer_listIiE4sizeB8ne180100Ev, symObjAddr: 0x3080, symBinAddr: 0x10000C5F0, symSize: 0x20 }
  - { offset: 0x32C63, size: 0x8, addend: 0x0, symName: __ZNSt3__16vectorIiNS_9allocatorIiEEE11__vallocateB8ne180100Em, symObjAddr: 0x30A0, symBinAddr: 0x10000C610, symSize: 0xA0 }
  - { offset: 0x32CA5, size: 0x8, addend: 0x0, symName: __ZNSt3__16vectorIiNS_9allocatorIiEEE18__construct_at_endIPKiS6_EEvT_T0_m, symObjAddr: 0x3140, symBinAddr: 0x10000C6B0, symSize: 0x90 }
  - { offset: 0x32D19, size: 0x8, addend: 0x0, symName: __ZNKSt16initializer_listIiE5beginB8ne180100Ev, symObjAddr: 0x31D0, symBinAddr: 0x10000C740, symSize: 0x20 }
  - { offset: 0x32D3D, size: 0x8, addend: 0x0, symName: __ZNKSt16initializer_listIiE3endB8ne180100Ev, symObjAddr: 0x31F0, symBinAddr: 0x10000C760, symSize: 0x20 }
  - { offset: 0x32D61, size: 0x8, addend: 0x0, symName: __ZNSt3__128__exception_guard_exceptionsINS_6vectorIiNS_9allocatorIiEEE16__destroy_vectorEE10__completeB8ne180100Ev, symObjAddr: 0x3210, symBinAddr: 0x10000C780, symSize: 0x20 }
  - { offset: 0x32D85, size: 0x8, addend: 0x0, symName: __ZNSt3__128__exception_guard_exceptionsINS_6vectorIiNS_9allocatorIiEEE16__destroy_vectorEED1B8ne180100Ev, symObjAddr: 0x3230, symBinAddr: 0x10000C7A0, symSize: 0x20 }
  - { offset: 0x32DAD, size: 0x8, addend: 0x0, symName: __ZNSt3__117__compressed_pairIPiNS_9allocatorIiEEEC2B8ne180100IDnNS_18__default_init_tagEEEOT_OT0_, symObjAddr: 0x3250, symBinAddr: 0x10000C7C0, symSize: 0x40 }
  - { offset: 0x32E03, size: 0x8, addend: 0x0, symName: __ZNSt3__122__compressed_pair_elemIPiLi0ELb0EEC2B8ne180100IDnvEEOT_, symObjAddr: 0x3290, symBinAddr: 0x10000C800, symSize: 0x20 }
  - { offset: 0x32E43, size: 0x8, addend: 0x0, symName: __ZNSt3__122__compressed_pair_elemINS_9allocatorIiEELi1ELb1EEC2B8ne180100ENS_18__default_init_tagE, symObjAddr: 0x32B0, symBinAddr: 0x10000C820, symSize: 0x20 }
  - { offset: 0x32E75, size: 0x8, addend: 0x0, symName: __ZNSt3__19allocatorIiEC2B8ne180100Ev, symObjAddr: 0x32D0, symBinAddr: 0x10000C840, symSize: 0x20 }
  - { offset: 0x32E9D, size: 0x8, addend: 0x0, symName: __ZNSt3__116__non_trivial_ifILb1ENS_9allocatorIiEEEC2B8ne180100Ev, symObjAddr: 0x32F0, symBinAddr: 0x10000C860, symSize: 0x10 }
  - { offset: 0x32EC5, size: 0x8, addend: 0x0, symName: __ZNSt3__128__exception_guard_exceptionsINS_6vectorIiNS_9allocatorIiEEE16__destroy_vectorEEC1B8ne180100ES5_, symObjAddr: 0x3300, symBinAddr: 0x10000C870, symSize: 0x30 }
  - { offset: 0x32EFB, size: 0x8, addend: 0x0, symName: __ZNSt3__128__exception_guard_exceptionsINS_6vectorIiNS_9allocatorIiEEE16__destroy_vectorEEC2B8ne180100ES5_, symObjAddr: 0x3330, symBinAddr: 0x10000C8A0, symSize: 0x20 }
  - { offset: 0x32F31, size: 0x8, addend: 0x0, symName: __ZNSt3__16vectorIiNS_9allocatorIiEEE16__destroy_vectorC2B8ne180100ERS3_, symObjAddr: 0x3350, symBinAddr: 0x10000C8C0, symSize: 0x20 }
  - { offset: 0x32F68, size: 0x8, addend: 0x0, symName: __ZNKSt3__16vectorIiNS_9allocatorIiEEE8max_sizeEv, symObjAddr: 0x3370, symBinAddr: 0x10000C8E0, symSize: 0x60 }
  - { offset: 0x32F8E, size: 0x8, addend: 0x0, symName: __ZNKSt3__16vectorIiNS_9allocatorIiEEE20__throw_length_errorB8ne180100Ev, symObjAddr: 0x33D0, symBinAddr: 0x10000C940, symSize: 0x20 }
  - { offset: 0x32FB2, size: 0x8, addend: 0x0, symName: __ZNSt3__16vectorIiNS_9allocatorIiEEE7__allocB8ne180100Ev, symObjAddr: 0x3430, symBinAddr: 0x10000C9A0, symSize: 0x20 }
  - { offset: 0x32FD6, size: 0x8, addend: 0x0, symName: __ZNSt3__16vectorIiNS_9allocatorIiEEE9__end_capB8ne180100Ev, symObjAddr: 0x3450, symBinAddr: 0x10000C9C0, symSize: 0x20 }
  - { offset: 0x32FFA, size: 0x8, addend: 0x0, symName: __ZNKSt3__16vectorIiNS_9allocatorIiEEE14__annotate_newB8ne180100Em, symObjAddr: 0x3470, symBinAddr: 0x10000C9E0, symSize: 0x10 }
  - { offset: 0x33037, size: 0x8, addend: 0x0, symName: __ZNSt3__116allocator_traitsINS_9allocatorIiEEE8max_sizeB8ne180100IS2_vEEmRKS2_, symObjAddr: 0x34B0, symBinAddr: 0x10000C9F0, symSize: 0x20 }
  - { offset: 0x33064, size: 0x8, addend: 0x0, symName: __ZNKSt3__16vectorIiNS_9allocatorIiEEE7__allocB8ne180100Ev, symObjAddr: 0x34D0, symBinAddr: 0x10000CA10, symSize: 0x20 }
  - { offset: 0x33088, size: 0x8, addend: 0x0, symName: __ZNKSt3__19allocatorIiE8max_sizeB8ne180100Ev, symObjAddr: 0x3580, symBinAddr: 0x10000CA30, symSize: 0x20 }
  - { offset: 0x330AC, size: 0x8, addend: 0x0, symName: __ZNKSt3__117__compressed_pairIPiNS_9allocatorIiEEE6secondB8ne180100Ev, symObjAddr: 0x35A0, symBinAddr: 0x10000CA50, symSize: 0x20 }
  - { offset: 0x330D0, size: 0x8, addend: 0x0, symName: __ZNKSt3__122__compressed_pair_elemINS_9allocatorIiEELi1ELb1EE5__getB8ne180100Ev, symObjAddr: 0x35C0, symBinAddr: 0x10000CA70, symSize: 0x10 }
  - { offset: 0x330F4, size: 0x8, addend: 0x0, symName: __ZNSt3__19allocatorIiE8allocateB8ne180100Em, symObjAddr: 0x36C0, symBinAddr: 0x10000CA80, symSize: 0x50 }
  - { offset: 0x33126, size: 0x8, addend: 0x0, symName: __ZNSt3__117__compressed_pairIPiNS_9allocatorIiEEE6secondB8ne180100Ev, symObjAddr: 0x3820, symBinAddr: 0x10000CAD0, symSize: 0x20 }
  - { offset: 0x3314A, size: 0x8, addend: 0x0, symName: __ZNSt3__122__compressed_pair_elemINS_9allocatorIiEELi1ELb1EE5__getB8ne180100Ev, symObjAddr: 0x3840, symBinAddr: 0x10000CAF0, symSize: 0x10 }
  - { offset: 0x3316E, size: 0x8, addend: 0x0, symName: __ZNSt3__117__compressed_pairIPiNS_9allocatorIiEEE5firstB8ne180100Ev, symObjAddr: 0x3850, symBinAddr: 0x10000CB00, symSize: 0x20 }
  - { offset: 0x33192, size: 0x8, addend: 0x0, symName: __ZNSt3__122__compressed_pair_elemIPiLi0ELb0EE5__getB8ne180100Ev, symObjAddr: 0x3870, symBinAddr: 0x10000CB20, symSize: 0x10 }
  - { offset: 0x331CF, size: 0x8, addend: 0x0, symName: __ZNSt3__16vectorIiNS_9allocatorIiEEE21_ConstructTransactionC1B8ne180100ERS3_m, symObjAddr: 0x3880, symBinAddr: 0x10000CB30, symSize: 0x30 }
  - { offset: 0x33215, size: 0x8, addend: 0x0, symName: __ZNSt3__16vectorIiNS_9allocatorIiEEE21_ConstructTransactionD1B8ne180100Ev, symObjAddr: 0x3930, symBinAddr: 0x10000CBE0, symSize: 0x20 }
  - { offset: 0x3323D, size: 0x8, addend: 0x0, symName: __ZNSt3__16vectorIiNS_9allocatorIiEEE21_ConstructTransactionC2B8ne180100ERS3_m, symObjAddr: 0x3950, symBinAddr: 0x10000CC00, symSize: 0x40 }
  - { offset: 0x332A1, size: 0x8, addend: 0x0, symName: __ZNSt3__14pairIPKiS2_EC1B8ne180100IS2_S2_Li0EEEOT_OT0_, symObjAddr: 0x3AC0, symBinAddr: 0x10000CD70, symSize: 0x30 }
  - { offset: 0x332FE, size: 0x8, addend: 0x0, symName: __ZNSt3__14pairIPKiS2_EC2B8ne180100IS2_S2_Li0EEEOT_OT0_, symObjAddr: 0x3AF0, symBinAddr: 0x10000CDA0, symSize: 0x30 }
  - { offset: 0x3335B, size: 0x8, addend: 0x0, symName: __ZNSt3__118__unwrap_iter_implIPKiLb1EE8__unwrapB8ne180100ES2_, symObjAddr: 0x3B20, symBinAddr: 0x10000CDD0, symSize: 0x20 }
  - { offset: 0x333A0, size: 0x8, addend: 0x0, symName: __ZNKSt3__114__copy_trivialclB8ne180100IKiiLi0EEENS_4pairIPT_PT0_EES5_S5_S7_, symObjAddr: 0x3CC0, symBinAddr: 0x10000CF70, symSize: 0x40 }
  - { offset: 0x33411, size: 0x8, addend: 0x0, symName: __ZNSt3__14pairIPKiPiEC1B8ne180100IRS2_S3_Li0EEEOT_OT0_, symObjAddr: 0x3E50, symBinAddr: 0x10000D100, symSize: 0x30 }
  - { offset: 0x3346E, size: 0x8, addend: 0x0, symName: __ZNSt3__14pairIPKiPiEC2B8ne180100IRS2_S3_Li0EEEOT_OT0_, symObjAddr: 0x3E80, symBinAddr: 0x10000D130, symSize: 0x30 }
  - { offset: 0x334CB, size: 0x8, addend: 0x0, symName: __ZNSt3__14pairIPKiPiEC1B8ne180100IS2_S3_Li0EEEOT_OT0_, symObjAddr: 0x3EB0, symBinAddr: 0x10000D160, symSize: 0x30 }
  - { offset: 0x33528, size: 0x8, addend: 0x0, symName: __ZNSt3__14pairIPKiPiEC2B8ne180100IS2_S3_Li0EEEOT_OT0_, symObjAddr: 0x3EE0, symBinAddr: 0x10000D190, symSize: 0x30 }
  - { offset: 0x33585, size: 0x8, addend: 0x0, symName: __ZNSt3__118__unwrap_iter_implIPKiLb1EE8__rewrapB8ne180100ES2_S2_, symObjAddr: 0x3F50, symBinAddr: 0x10000D200, symSize: 0x50 }
  - { offset: 0x335B5, size: 0x8, addend: 0x0, symName: __ZNSt3__118__unwrap_iter_implIPiLb1EE8__unwrapB8ne180100ES1_, symObjAddr: 0x3FA0, symBinAddr: 0x10000D250, symSize: 0x20 }
  - { offset: 0x335D7, size: 0x8, addend: 0x0, symName: __ZNSt3__118__unwrap_iter_implIPiLb1EE8__rewrapB8ne180100ES1_S1_, symObjAddr: 0x3FD0, symBinAddr: 0x10000D280, symSize: 0x50 }
  - { offset: 0x33607, size: 0x8, addend: 0x0, symName: __ZNSt3__16vectorIiNS_9allocatorIiEEE21_ConstructTransactionD2B8ne180100Ev, symObjAddr: 0x4020, symBinAddr: 0x10000D2D0, symSize: 0x20 }
  - { offset: 0x3362F, size: 0x8, addend: 0x0, symName: __ZNSt3__128__exception_guard_exceptionsINS_6vectorIiNS_9allocatorIiEEE16__destroy_vectorEED2B8ne180100Ev, symObjAddr: 0x4040, symBinAddr: 0x10000D2F0, symSize: 0x40 }
  - { offset: 0x33657, size: 0x8, addend: 0x0, symName: __ZNSt3__16vectorIiNS_9allocatorIiEEE16__destroy_vectorclB8ne180100Ev, symObjAddr: 0x4080, symBinAddr: 0x10000D330, symSize: 0x80 }
  - { offset: 0x3367B, size: 0x8, addend: 0x0, symName: __ZNSt3__16vectorIiNS_9allocatorIiEEE7__clearB8ne180100Ev, symObjAddr: 0x4100, symBinAddr: 0x10000D3B0, symSize: 0x20 }
  - { offset: 0x3369F, size: 0x8, addend: 0x0, symName: __ZNKSt3__16vectorIiNS_9allocatorIiEEE17__annotate_deleteB8ne180100Ev, symObjAddr: 0x4120, symBinAddr: 0x10000D3D0, symSize: 0x10 }
  - { offset: 0x336C3, size: 0x8, addend: 0x0, symName: __ZNSt3__116allocator_traitsINS_9allocatorIiEEE10deallocateB8ne180100ERS2_Pim, symObjAddr: 0x4130, symBinAddr: 0x10000D3E0, symSize: 0x30 }
  - { offset: 0x33704, size: 0x8, addend: 0x0, symName: __ZNKSt3__16vectorIiNS_9allocatorIiEEE8capacityB8ne180100Ev, symObjAddr: 0x4160, symBinAddr: 0x10000D410, symSize: 0x30 }
  - { offset: 0x33728, size: 0x8, addend: 0x0, symName: __ZNSt3__16vectorIiNS_9allocatorIiEEE22__base_destruct_at_endB8ne180100EPi, symObjAddr: 0x4190, symBinAddr: 0x10000D440, symSize: 0x80 }
  - { offset: 0x3376A, size: 0x8, addend: 0x0, symName: __ZNSt3__116allocator_traitsINS_9allocatorIiEEE7destroyB8ne180100IivEEvRS2_PT_, symObjAddr: 0x4210, symBinAddr: 0x10000D4C0, symSize: 0x30 }
  - { offset: 0x337A6, size: 0x8, addend: 0x0, symName: __ZNSt3__19allocatorIiE7destroyB8ne180100EPi, symObjAddr: 0x4240, symBinAddr: 0x10000D4F0, symSize: 0x10 }
  - { offset: 0x337D8, size: 0x8, addend: 0x0, symName: __ZNSt3__19allocatorIiE10deallocateB8ne180100EPim, symObjAddr: 0x4250, symBinAddr: 0x10000D500, symSize: 0x40 }
  - { offset: 0x33818, size: 0x8, addend: 0x0, symName: __ZNKSt3__16vectorIiNS_9allocatorIiEEE9__end_capB8ne180100Ev, symObjAddr: 0x4390, symBinAddr: 0x10000D540, symSize: 0x20 }
  - { offset: 0x3383C, size: 0x8, addend: 0x0, symName: __ZNKSt3__117__compressed_pairIPiNS_9allocatorIiEEE5firstB8ne180100Ev, symObjAddr: 0x43B0, symBinAddr: 0x10000D560, symSize: 0x20 }
  - { offset: 0x33860, size: 0x8, addend: 0x0, symName: __ZNKSt3__122__compressed_pair_elemIPiLi0ELb0EE5__getB8ne180100Ev, symObjAddr: 0x43D0, symBinAddr: 0x10000D580, symSize: 0x10 }
  - { offset: 0x33884, size: 0x8, addend: 0x0, symName: __ZNSt3__16vectorIP6PlayerNS_9allocatorIS2_EEED2B8ne180100Ev, symObjAddr: 0x43E0, symBinAddr: 0x10000D590, symSize: 0x40 }
  - { offset: 0x338AC, size: 0x8, addend: 0x0, symName: __ZNSt3__16vectorIP6PlayerNS_9allocatorIS2_EEE16__destroy_vectorC1B8ne180100ERS5_, symObjAddr: 0x4420, symBinAddr: 0x10000D5D0, symSize: 0x30 }
  - { offset: 0x338E3, size: 0x8, addend: 0x0, symName: __ZNSt3__16vectorIP6PlayerNS_9allocatorIS2_EEE16__destroy_vectorclB8ne180100Ev, symObjAddr: 0x4450, symBinAddr: 0x10000D600, symSize: 0x80 }
  - { offset: 0x33907, size: 0x8, addend: 0x0, symName: __ZNSt3__16vectorIP6PlayerNS_9allocatorIS2_EEE16__destroy_vectorC2B8ne180100ERS5_, symObjAddr: 0x44D0, symBinAddr: 0x10000D680, symSize: 0x20 }
  - { offset: 0x3393E, size: 0x8, addend: 0x0, symName: __ZNSt3__16vectorIP6PlayerNS_9allocatorIS2_EEE7__clearB8ne180100Ev, symObjAddr: 0x44F0, symBinAddr: 0x10000D6A0, symSize: 0x20 }
  - { offset: 0x33962, size: 0x8, addend: 0x0, symName: __ZNKSt3__16vectorIP6PlayerNS_9allocatorIS2_EEE17__annotate_deleteB8ne180100Ev, symObjAddr: 0x4510, symBinAddr: 0x10000D6C0, symSize: 0x10 }
  - { offset: 0x33986, size: 0x8, addend: 0x0, symName: __ZNSt3__116allocator_traitsINS_9allocatorIP6PlayerEEE10deallocateB8ne180100ERS4_PS3_m, symObjAddr: 0x4520, symBinAddr: 0x10000D6D0, symSize: 0x30 }
  - { offset: 0x339C7, size: 0x8, addend: 0x0, symName: __ZNSt3__16vectorIP6PlayerNS_9allocatorIS2_EEE7__allocB8ne180100Ev, symObjAddr: 0x4550, symBinAddr: 0x10000D700, symSize: 0x20 }
  - { offset: 0x339EB, size: 0x8, addend: 0x0, symName: __ZNKSt3__16vectorIP6PlayerNS_9allocatorIS2_EEE8capacityB8ne180100Ev, symObjAddr: 0x4570, symBinAddr: 0x10000D720, symSize: 0x30 }
  - { offset: 0x33A0F, size: 0x8, addend: 0x0, symName: __ZNSt3__16vectorIP6PlayerNS_9allocatorIS2_EEE22__base_destruct_at_endB8ne180100EPS2_, symObjAddr: 0x45A0, symBinAddr: 0x10000D750, symSize: 0x80 }
  - { offset: 0x33A51, size: 0x8, addend: 0x0, symName: __ZNSt3__116allocator_traitsINS_9allocatorIP6PlayerEEE7destroyB8ne180100IS3_vEEvRS4_PT_, symObjAddr: 0x4620, symBinAddr: 0x10000D7D0, symSize: 0x30 }
  - { offset: 0x33A8D, size: 0x8, addend: 0x0, symName: __ZNSt3__19allocatorIP6PlayerE7destroyB8ne180100EPS2_, symObjAddr: 0x4660, symBinAddr: 0x10000D810, symSize: 0x10 }
  - { offset: 0x33ABF, size: 0x8, addend: 0x0, symName: __ZNSt3__19allocatorIP6PlayerE10deallocateB8ne180100EPS2_m, symObjAddr: 0x4670, symBinAddr: 0x10000D820, symSize: 0x40 }
  - { offset: 0x33AFF, size: 0x8, addend: 0x0, symName: __ZNSt3__117__compressed_pairIPP6PlayerNS_9allocatorIS2_EEE6secondB8ne180100Ev, symObjAddr: 0x46B0, symBinAddr: 0x10000D860, symSize: 0x20 }
  - { offset: 0x33B23, size: 0x8, addend: 0x0, symName: __ZNSt3__122__compressed_pair_elemINS_9allocatorIP6PlayerEELi1ELb1EE5__getB8ne180100Ev, symObjAddr: 0x46D0, symBinAddr: 0x10000D880, symSize: 0x10 }
  - { offset: 0x33B47, size: 0x8, addend: 0x0, symName: __ZNKSt3__16vectorIP6PlayerNS_9allocatorIS2_EEE9__end_capB8ne180100Ev, symObjAddr: 0x46E0, symBinAddr: 0x10000D890, symSize: 0x20 }
  - { offset: 0x33B6B, size: 0x8, addend: 0x0, symName: __ZNKSt3__117__compressed_pairIPP6PlayerNS_9allocatorIS2_EEE5firstB8ne180100Ev, symObjAddr: 0x4700, symBinAddr: 0x10000D8B0, symSize: 0x20 }
  - { offset: 0x33B8F, size: 0x8, addend: 0x0, symName: __ZNKSt3__122__compressed_pair_elemIPP6PlayerLi0ELb0EE5__getB8ne180100Ev, symObjAddr: 0x4720, symBinAddr: 0x10000D8D0, symSize: 0x10 }
  - { offset: 0x33BB3, size: 0x8, addend: 0x0, symName: __ZNSt3__16vectorIiNS_9allocatorIiEEED2B8ne180100Ev, symObjAddr: 0x4730, symBinAddr: 0x10000D8E0, symSize: 0x40 }
  - { offset: 0x33BDB, size: 0x8, addend: 0x0, symName: __ZNSt3__16vectorIP6PlayerNS_9allocatorIS2_EEE19__copy_assign_allocB8ne180100ERKS5_, symObjAddr: 0x4770, symBinAddr: 0x10000D920, symSize: 0x30 }
  - { offset: 0x33C0E, size: 0x8, addend: 0x0, symName: __ZNSt3__16vectorIP6PlayerNS_9allocatorIS2_EEE6assignIPS2_Li0EEEvT_S8_, symObjAddr: 0x47A0, symBinAddr: 0x10000D950, symSize: 0x60 }
  - { offset: 0x33C62, size: 0x8, addend: 0x0, symName: __ZNSt3__16vectorIP6PlayerNS_9allocatorIS2_EEE19__copy_assign_allocB8ne180100ERKS5_NS_17integral_constantIbLb0EEE, symObjAddr: 0x4800, symBinAddr: 0x10000D9B0, symSize: 0x10 }
  - { offset: 0x33C9E, size: 0x8, addend: 0x0, symName: __ZNSt3__16vectorIP6PlayerNS_9allocatorIS2_EEE18__assign_with_sizeB8ne180100IPS2_S7_EEvT_T0_l, symObjAddr: 0x4810, symBinAddr: 0x10000D9C0, symSize: 0x160 }
  - { offset: 0x33D4C, size: 0x8, addend: 0x0, symName: __ZNSt3__16vectorIP6PlayerNS_9allocatorIS2_EEE18__construct_at_endIPS2_S7_EEvT_T0_m, symObjAddr: 0x4A10, symBinAddr: 0x10000DBC0, symSize: 0x90 }
  - { offset: 0x33DC0, size: 0x8, addend: 0x0, symName: __ZNSt3__16vectorIP6PlayerNS_9allocatorIS2_EEE17__destruct_at_endB8ne180100EPS2_, symObjAddr: 0x4AE0, symBinAddr: 0x10000DC90, symSize: 0x50 }
  - { offset: 0x33E02, size: 0x8, addend: 0x0, symName: __ZNSt3__16vectorIP6PlayerNS_9allocatorIS2_EEE13__vdeallocateEv, symObjAddr: 0x4B30, symBinAddr: 0x10000DCE0, symSize: 0x90 }
  - { offset: 0x33E28, size: 0x8, addend: 0x0, symName: __ZNSt3__16vectorIP6PlayerNS_9allocatorIS2_EEE11__vallocateB8ne180100Em, symObjAddr: 0x4BC0, symBinAddr: 0x10000DD70, symSize: 0xA0 }
  - { offset: 0x33E6A, size: 0x8, addend: 0x0, symName: __ZNKSt3__16vectorIP6PlayerNS_9allocatorIS2_EEE11__recommendB8ne180100Em, symObjAddr: 0x4C60, symBinAddr: 0x10000DE10, symSize: 0x90 }
  - { offset: 0x33ED6, size: 0x8, addend: 0x0, symName: __ZNSt3__16vectorIP6PlayerNS_9allocatorIS2_EEE21_ConstructTransactionC1B8ne180100ERS5_m, symObjAddr: 0x4D50, symBinAddr: 0x10000DF00, symSize: 0x30 }
  - { offset: 0x33F1C, size: 0x8, addend: 0x0, symName: __ZNSt3__16vectorIP6PlayerNS_9allocatorIS2_EEE21_ConstructTransactionD1B8ne180100Ev, symObjAddr: 0x4E00, symBinAddr: 0x10000DFB0, symSize: 0x20 }
  - { offset: 0x33F44, size: 0x8, addend: 0x0, symName: __ZNSt3__16vectorIP6PlayerNS_9allocatorIS2_EEE21_ConstructTransactionC2B8ne180100ERS5_m, symObjAddr: 0x4E20, symBinAddr: 0x10000DFD0, symSize: 0x40 }
  - { offset: 0x33FA8, size: 0x8, addend: 0x0, symName: __ZNSt3__14pairIPP6PlayerS3_EC1B8ne180100IS3_S3_Li0EEEOT_OT0_, symObjAddr: 0x4F70, symBinAddr: 0x10000E120, symSize: 0x30 }
  - { offset: 0x34005, size: 0x8, addend: 0x0, symName: __ZNSt3__14pairIPP6PlayerS3_EC2B8ne180100IS3_S3_Li0EEEOT_OT0_, symObjAddr: 0x4FA0, symBinAddr: 0x10000E150, symSize: 0x30 }
  - { offset: 0x34062, size: 0x8, addend: 0x0, symName: __ZNSt3__118__unwrap_iter_implIPP6PlayerLb1EE8__unwrapB8ne180100ES3_, symObjAddr: 0x4FD0, symBinAddr: 0x10000E180, symSize: 0x20 }
  - { offset: 0x34084, size: 0x8, addend: 0x0, symName: __ZNSt3__118__unwrap_iter_implIPP6PlayerLb1EE8__rewrapB8ne180100ES3_S3_, symObjAddr: 0x4FF0, symBinAddr: 0x10000E1A0, symSize: 0x50 }
  - { offset: 0x340B4, size: 0x8, addend: 0x0, symName: __ZNSt3__16vectorIP6PlayerNS_9allocatorIS2_EEE21_ConstructTransactionD2B8ne180100Ev, symObjAddr: 0x5040, symBinAddr: 0x10000E1F0, symSize: 0x20 }
  - { offset: 0x340DC, size: 0x8, addend: 0x0, symName: __ZNKSt3__114__copy_trivialclB8ne180100IP6PlayerS3_Li0EEENS_4pairIPT_PT0_EES6_S6_S8_, symObjAddr: 0x5150, symBinAddr: 0x10000E300, symSize: 0x40 }
  - { offset: 0x34143, size: 0x8, addend: 0x0, symName: __ZNSt3__14pairIPP6PlayerS3_EC1B8ne180100IRS3_S3_Li0EEEOT_OT0_, symObjAddr: 0x52B0, symBinAddr: 0x10000E460, symSize: 0x30 }
  - { offset: 0x341A0, size: 0x8, addend: 0x0, symName: __ZNSt3__14pairIPP6PlayerS3_EC2B8ne180100IRS3_S3_Li0EEEOT_OT0_, symObjAddr: 0x52E0, symBinAddr: 0x10000E490, symSize: 0x30 }
  - { offset: 0x341FD, size: 0x8, addend: 0x0, symName: __ZNKSt3__16vectorIP6PlayerNS_9allocatorIS2_EEE17__annotate_shrinkB8ne180100Em, symObjAddr: 0x5310, symBinAddr: 0x10000E4C0, symSize: 0x10 }
  - { offset: 0x34230, size: 0x8, addend: 0x0, symName: __ZNSt3__16vectorIP6PlayerNS_9allocatorIS2_EEE5clearB8ne180100Ev, symObjAddr: 0x5320, symBinAddr: 0x10000E4D0, symSize: 0x40 }
  - { offset: 0x34263, size: 0x8, addend: 0x0, symName: __ZNSt3__16vectorIP6PlayerNS_9allocatorIS2_EEE9__end_capB8ne180100Ev, symObjAddr: 0x5360, symBinAddr: 0x10000E510, symSize: 0x20 }
  - { offset: 0x34287, size: 0x8, addend: 0x0, symName: __ZNSt3__117__compressed_pairIPP6PlayerNS_9allocatorIS2_EEE5firstB8ne180100Ev, symObjAddr: 0x5380, symBinAddr: 0x10000E530, symSize: 0x20 }
  - { offset: 0x342AB, size: 0x8, addend: 0x0, symName: __ZNSt3__122__compressed_pair_elemIPP6PlayerLi0ELb0EE5__getB8ne180100Ev, symObjAddr: 0x53A0, symBinAddr: 0x10000E550, symSize: 0x10 }
  - { offset: 0x342CF, size: 0x8, addend: 0x0, symName: __ZNKSt3__16vectorIP6PlayerNS_9allocatorIS2_EEE8max_sizeEv, symObjAddr: 0x53B0, symBinAddr: 0x10000E560, symSize: 0x60 }
  - { offset: 0x342F5, size: 0x8, addend: 0x0, symName: __ZNKSt3__16vectorIP6PlayerNS_9allocatorIS2_EEE20__throw_length_errorB8ne180100Ev, symObjAddr: 0x5410, symBinAddr: 0x10000E5C0, symSize: 0x20 }
  - { offset: 0x34319, size: 0x8, addend: 0x0, symName: __ZNKSt3__16vectorIP6PlayerNS_9allocatorIS2_EEE14__annotate_newB8ne180100Em, symObjAddr: 0x5470, symBinAddr: 0x10000E620, symSize: 0x10 }
  - { offset: 0x34356, size: 0x8, addend: 0x0, symName: __ZNSt3__116allocator_traitsINS_9allocatorIP6PlayerEEE8max_sizeB8ne180100IS4_vEEmRKS4_, symObjAddr: 0x5480, symBinAddr: 0x10000E630, symSize: 0x20 }
  - { offset: 0x34383, size: 0x8, addend: 0x0, symName: __ZNKSt3__16vectorIP6PlayerNS_9allocatorIS2_EEE7__allocB8ne180100Ev, symObjAddr: 0x54A0, symBinAddr: 0x10000E650, symSize: 0x20 }
  - { offset: 0x343A7, size: 0x8, addend: 0x0, symName: __ZNKSt3__19allocatorIP6PlayerE8max_sizeB8ne180100Ev, symObjAddr: 0x54C0, symBinAddr: 0x10000E670, symSize: 0x20 }
  - { offset: 0x343CB, size: 0x8, addend: 0x0, symName: __ZNKSt3__117__compressed_pairIPP6PlayerNS_9allocatorIS2_EEE6secondB8ne180100Ev, symObjAddr: 0x54E0, symBinAddr: 0x10000E690, symSize: 0x20 }
  - { offset: 0x343EF, size: 0x8, addend: 0x0, symName: __ZNKSt3__122__compressed_pair_elemINS_9allocatorIP6PlayerEELi1ELb1EE5__getB8ne180100Ev, symObjAddr: 0x5500, symBinAddr: 0x10000E6B0, symSize: 0x10 }
  - { offset: 0x34413, size: 0x8, addend: 0x0, symName: __ZNSt3__19allocatorIP6PlayerE8allocateB8ne180100Em, symObjAddr: 0x5510, symBinAddr: 0x10000E6C0, symSize: 0x50 }
  - { offset: 0x34445, size: 0x8, addend: 0x0, symName: __ZNSt3__16vectorIiNS_9allocatorIiEEEC2B8ne180100Ev, symObjAddr: 0x66B0, symBinAddr: 0x10000E730, symSize: 0x50 }
  - { offset: 0x34495, size: 0x8, addend: 0x0, symName: __ZNSt3__16vectorIiNS_9allocatorIiEEE22__construct_one_at_endB8ne180100IJRKiEEEvDpOT_, symObjAddr: 0x7A20, symBinAddr: 0x10000E780, symSize: 0x90 }
  - { offset: 0x344E4, size: 0x8, addend: 0x0, symName: __ZNSt3__16vectorIiNS_9allocatorIiEEE21__push_back_slow_pathIRKiEEPiOT_, symObjAddr: 0x7AB0, symBinAddr: 0x10000E810, symSize: 0xE0 }
  - { offset: 0x34540, size: 0x8, addend: 0x0, symName: __ZNSt3__116allocator_traitsINS_9allocatorIiEEE9constructB8ne180100IiJRKiEvEEvRS2_PT_DpOT0_, symObjAddr: 0x7B90, symBinAddr: 0x10000E8F0, symSize: 0x30 }
  - { offset: 0x34598, size: 0x8, addend: 0x0, symName: __ZNSt3__19allocatorIiE9constructB8ne180100IiJRKiEEEvPT_DpOT0_, symObjAddr: 0x7BC0, symBinAddr: 0x10000E920, symSize: 0x20 }
  - { offset: 0x345EE, size: 0x8, addend: 0x0, symName: __ZNKSt3__16vectorIiNS_9allocatorIiEEE11__recommendB8ne180100Em, symObjAddr: 0x7BE0, symBinAddr: 0x10000E940, symSize: 0x90 }
  - { offset: 0x34641, size: 0x8, addend: 0x0, symName: __ZNKSt3__16vectorIiNS_9allocatorIiEEE4sizeB8ne180100Ev, symObjAddr: 0x7C70, symBinAddr: 0x10000E9D0, symSize: 0x20 }
  - { offset: 0x34666, size: 0x8, addend: 0x0, symName: __ZNSt3__114__split_bufferIiRNS_9allocatorIiEEEC1EmmS3_, symObjAddr: 0x7C90, symBinAddr: 0x10000E9F0, symSize: 0x40 }
  - { offset: 0x346BB, size: 0x8, addend: 0x0, symName: __ZNSt3__114__split_bufferIiRNS_9allocatorIiEEED1Ev, symObjAddr: 0x7DF0, symBinAddr: 0x10000EB50, symSize: 0x20 }
  - { offset: 0x346E6, size: 0x8, addend: 0x0, symName: __ZNSt3__114__split_bufferIiRNS_9allocatorIiEEEC2EmmS3_, symObjAddr: 0x7E10, symBinAddr: 0x10000EB70, symSize: 0xD0 }
  - { offset: 0x34757, size: 0x8, addend: 0x0, symName: __ZNSt3__117__compressed_pairIPiRNS_9allocatorIiEEEC1B8ne180100IDnS4_EEOT_OT0_, symObjAddr: 0x7EE0, symBinAddr: 0x10000EC40, symSize: 0x30 }
  - { offset: 0x347AD, size: 0x8, addend: 0x0, symName: __ZNSt3__114__split_bufferIiRNS_9allocatorIiEEE7__allocB8ne180100Ev, symObjAddr: 0x7F10, symBinAddr: 0x10000EC70, symSize: 0x20 }
  - { offset: 0x347D1, size: 0x8, addend: 0x0, symName: __ZNSt3__114__split_bufferIiRNS_9allocatorIiEEE9__end_capB8ne180100Ev, symObjAddr: 0x7F30, symBinAddr: 0x10000EC90, symSize: 0x20 }
  - { offset: 0x347F5, size: 0x8, addend: 0x0, symName: __ZNSt3__117__compressed_pairIPiRNS_9allocatorIiEEEC2B8ne180100IDnS4_EEOT_OT0_, symObjAddr: 0x7F50, symBinAddr: 0x10000ECB0, symSize: 0x40 }
  - { offset: 0x3484B, size: 0x8, addend: 0x0, symName: __ZNSt3__122__compressed_pair_elemIRNS_9allocatorIiEELi1ELb0EEC2B8ne180100IS3_vEEOT_, symObjAddr: 0x7F90, symBinAddr: 0x10000ECF0, symSize: 0x20 }
  - { offset: 0x3488B, size: 0x8, addend: 0x0, symName: __ZNSt3__117__compressed_pairIPiRNS_9allocatorIiEEE6secondB8ne180100Ev, symObjAddr: 0x7FB0, symBinAddr: 0x10000ED10, symSize: 0x20 }
  - { offset: 0x348AF, size: 0x8, addend: 0x0, symName: __ZNSt3__122__compressed_pair_elemIRNS_9allocatorIiEELi1ELb0EE5__getB8ne180100Ev, symObjAddr: 0x7FD0, symBinAddr: 0x10000ED30, symSize: 0x20 }
  - { offset: 0x348D3, size: 0x8, addend: 0x0, symName: __ZNSt3__117__compressed_pairIPiRNS_9allocatorIiEEE5firstB8ne180100Ev, symObjAddr: 0x7FF0, symBinAddr: 0x10000ED50, symSize: 0x20 }
  - { offset: 0x348F7, size: 0x8, addend: 0x0, symName: __ZNSt3__116reverse_iteratorIPiEC1B8ne180100ES1_, symObjAddr: 0x8080, symBinAddr: 0x10000EDE0, symSize: 0x30 }
  - { offset: 0x3492D, size: 0x8, addend: 0x0, symName: __ZNKSt3__116reverse_iteratorIPiE4baseB8ne180100Ev, symObjAddr: 0x80B0, symBinAddr: 0x10000EE10, symSize: 0x20 }
  - { offset: 0x3496A, size: 0x8, addend: 0x0, symName: __ZNKSt3__111__move_loopINS_17_ClassicAlgPolicyEEclB8ne180100INS_16reverse_iteratorIPiEES6_S6_EENS_4pairIT_T1_EES8_T0_S9_, symObjAddr: 0x8550, symBinAddr: 0x10000F2B0, symSize: 0xA0 }
  - { offset: 0x349D8, size: 0x8, addend: 0x0, symName: __ZNSt3__18_IterOpsINS_17_ClassicAlgPolicyEE11__iter_moveB8ne180100IRNS_16reverse_iteratorIPiEELi0EEEDTclsr3stdE4movedeclsr3stdE7declvalIRT_EEEEOS8_, symObjAddr: 0x8770, symBinAddr: 0x10000F4D0, symSize: 0x20 }
  - { offset: 0x34A0A, size: 0x8, addend: 0x0, symName: __ZNKSt3__116reverse_iteratorIPiEdeB8ne180100Ev, symObjAddr: 0x8790, symBinAddr: 0x10000F4F0, symSize: 0x30 }
  - { offset: 0x34A3C, size: 0x8, addend: 0x0, symName: __ZNSt3__116reverse_iteratorIPiEppB8ne180100Ev, symObjAddr: 0x87C0, symBinAddr: 0x10000F520, symSize: 0x20 }
  - { offset: 0x34A60, size: 0x8, addend: 0x0, symName: __ZNSt3__18_IterOpsINS_17_ClassicAlgPolicyEE25__validate_iter_referenceB8ne180100IRNS_16reverse_iteratorIPiEEEEvv, symObjAddr: 0x87E0, symBinAddr: 0x10000F540, symSize: 0x10 }
  - { offset: 0x34A7D, size: 0x8, addend: 0x0, symName: __ZNSt3__118__unwrap_iter_implINS_16reverse_iteratorIPiEELb0EE8__unwrapB8ne180100ES3_, symObjAddr: 0x87F0, symBinAddr: 0x10000F550, symSize: 0x20 }
  - { offset: 0x34AA4, size: 0x8, addend: 0x0, symName: __ZNSt3__14pairINS_16reverse_iteratorIPiEES3_EC1B8ne180100IS3_S3_Li0EEEOT_OT0_, symObjAddr: 0x8810, symBinAddr: 0x10000F570, symSize: 0x30 }
  - { offset: 0x34B01, size: 0x8, addend: 0x0, symName: __ZNSt3__14pairINS_16reverse_iteratorIPiEES3_EC2B8ne180100IS3_S3_Li0EEEOT_OT0_, symObjAddr: 0x8840, symBinAddr: 0x10000F5A0, symSize: 0x40 }
  - { offset: 0x34B5E, size: 0x8, addend: 0x0, symName: __ZNSt3__118__unwrap_iter_implINS_16reverse_iteratorIPiEELb0EE8__rewrapB8ne180100ES3_S3_, symObjAddr: 0x8880, symBinAddr: 0x10000F5E0, symSize: 0x30 }
  - { offset: 0x34B8A, size: 0x8, addend: 0x0, symName: __ZNSt3__116reverse_iteratorIPiEC2B8ne180100ES1_, symObjAddr: 0x88B0, symBinAddr: 0x10000F610, symSize: 0x30 }
  - { offset: 0x34BC1, size: 0x8, addend: 0x0, symName: __ZNSt3__114__split_bufferIiRNS_9allocatorIiEEED2Ev, symObjAddr: 0x88E0, symBinAddr: 0x10000F640, symSize: 0x70 }
  - { offset: 0x34BEB, size: 0x8, addend: 0x0, symName: __ZNSt3__114__split_bufferIiRNS_9allocatorIiEEE5clearB8ne180100Ev, symObjAddr: 0x8950, symBinAddr: 0x10000F6B0, symSize: 0x20 }
  - { offset: 0x34C0F, size: 0x8, addend: 0x0, symName: __ZNKSt3__114__split_bufferIiRNS_9allocatorIiEEE8capacityB8ne180100Ev, symObjAddr: 0x8970, symBinAddr: 0x10000F6D0, symSize: 0x30 }
  - { offset: 0x34C33, size: 0x8, addend: 0x0, symName: __ZNSt3__114__split_bufferIiRNS_9allocatorIiEEE17__destruct_at_endB8ne180100EPi, symObjAddr: 0x89A0, symBinAddr: 0x10000F700, symSize: 0x30 }
  - { offset: 0x34C65, size: 0x8, addend: 0x0, symName: __ZNSt3__114__split_bufferIiRNS_9allocatorIiEEE17__destruct_at_endB8ne180100EPiNS_17integral_constantIbLb0EEE, symObjAddr: 0x89D0, symBinAddr: 0x10000F730, symSize: 0x80 }
  - { offset: 0x34CA3, size: 0x8, addend: 0x0, symName: __ZNKSt3__114__split_bufferIiRNS_9allocatorIiEEE9__end_capB8ne180100Ev, symObjAddr: 0x8A50, symBinAddr: 0x10000F7B0, symSize: 0x20 }
  - { offset: 0x34CC7, size: 0x8, addend: 0x0, symName: __ZNKSt3__117__compressed_pairIPiRNS_9allocatorIiEEE5firstB8ne180100Ev, symObjAddr: 0x8A70, symBinAddr: 0x10000F7D0, symSize: 0x20 }
  - { offset: 0x34CEB, size: 0x8, addend: 0x0, symName: __ZNSt3__112basic_stringIcNS_11char_traitsIcEENS_9allocatorIcEEEC2B8ne180100ILi0EEEPKc, symObjAddr: 0x8A90, symBinAddr: 0x10000F7F0, symSize: 0x50 }
  - { offset: 0x34D29, size: 0x8, addend: 0x0, symName: __ZNSt3__16vectorIiNS_9allocatorIiEEE6assignIPKiLi0EEEvT_S7_, symObjAddr: 0x8AE0, symBinAddr: 0x10000F840, symSize: 0x60 }
  - { offset: 0x34D7D, size: 0x8, addend: 0x0, symName: __ZNSt3__16vectorIiNS_9allocatorIiEEE18__assign_with_sizeB8ne180100IPKiS6_EEvT_T0_l, symObjAddr: 0x8B40, symBinAddr: 0x10000F8A0, symSize: 0x160 }
  - { offset: 0x34E2B, size: 0x8, addend: 0x0, symName: __ZNSt3__16vectorIiNS_9allocatorIiEEE17__destruct_at_endB8ne180100EPi, symObjAddr: 0x8D00, symBinAddr: 0x10000FA60, symSize: 0x50 }
  - { offset: 0x34E6D, size: 0x8, addend: 0x0, symName: __ZNSt3__16vectorIiNS_9allocatorIiEEE13__vdeallocateEv, symObjAddr: 0x8D50, symBinAddr: 0x10000FAB0, symSize: 0x90 }
  - { offset: 0x34E93, size: 0x8, addend: 0x0, symName: __ZNKSt3__16vectorIiNS_9allocatorIiEEE17__annotate_shrinkB8ne180100Em, symObjAddr: 0x8E30, symBinAddr: 0x10000FB90, symSize: 0x10 }
  - { offset: 0x34EC6, size: 0x8, addend: 0x0, symName: __ZNSt3__16vectorIiNS_9allocatorIiEEE5clearB8ne180100Ev, symObjAddr: 0x8E40, symBinAddr: 0x10000FBA0, symSize: 0x40 }
  - { offset: 0x34EF9, size: 0x8, addend: 0x0, symName: __ZNSt3__19basic_iosIcNS_11char_traitsIcEEEC2B8ne180100Ev, symObjAddr: 0x8EA0, symBinAddr: 0x10000FC00, symSize: 0x40 }
  - { offset: 0x34F21, size: 0x8, addend: 0x0, symName: __ZNSt3__113basic_istreamIcNS_11char_traitsIcEEEC2B8ne180100EPNS_15basic_streambufIcS2_EE, symObjAddr: 0x8EE0, symBinAddr: 0x10000FC40, symSize: 0x50 }
  - { offset: 0x34F63, size: 0x8, addend: 0x0, symName: __ZNSt3__18ios_baseC2B8ne180100Ev, symObjAddr: 0x8F30, symBinAddr: 0x10000FC90, symSize: 0x20 }
  - { offset: 0x34F8B, size: 0x8, addend: 0x0, symName: __ZNSt3__19basic_iosIcNS_11char_traitsIcEEE4initB8ne180100EPNS_15basic_streambufIcS2_EE, symObjAddr: 0x8F50, symBinAddr: 0x10000FCB0, symSize: 0x50 }
  - { offset: 0x34FC0, size: 0x8, addend: 0x0, symName: __ZNKSt3__113basic_filebufIcNS_11char_traitsIcEEE7is_openEv, symObjAddr: 0x8FA0, symBinAddr: 0x10000FD00, symSize: 0x20 }
  - { offset: 0x34FEB, size: 0x8, addend: 0x0, symName: __ZNSt3__16vectorIP6PlayerNS_9allocatorIS2_EEE22__construct_one_at_endB8ne180100IJS2_EEEvDpOT_, symObjAddr: 0x8FC0, symBinAddr: 0x10000FD20, symSize: 0x90 }
  - { offset: 0x3503A, size: 0x8, addend: 0x0, symName: __ZNSt3__16vectorIP6PlayerNS_9allocatorIS2_EEE21__push_back_slow_pathIS2_EEPS2_OT_, symObjAddr: 0x9050, symBinAddr: 0x10000FDB0, symSize: 0xE0 }
  - { offset: 0x35096, size: 0x8, addend: 0x0, symName: __ZNSt3__116allocator_traitsINS_9allocatorIP6PlayerEEE9constructB8ne180100IS3_JS3_EvEEvRS4_PT_DpOT0_, symObjAddr: 0x9130, symBinAddr: 0x10000FE90, symSize: 0x30 }
  - { offset: 0x350EE, size: 0x8, addend: 0x0, symName: __ZNSt3__19allocatorIP6PlayerE9constructB8ne180100IS2_JS2_EEEvPT_DpOT0_, symObjAddr: 0x9160, symBinAddr: 0x10000FEC0, symSize: 0x20 }
  - { offset: 0x35145, size: 0x8, addend: 0x0, symName: __ZNSt3__114__split_bufferIP6PlayerRNS_9allocatorIS2_EEEC1EmmS5_, symObjAddr: 0x9180, symBinAddr: 0x10000FEE0, symSize: 0x40 }
  - { offset: 0x3519A, size: 0x8, addend: 0x0, symName: __ZNSt3__114__split_bufferIP6PlayerRNS_9allocatorIS2_EEED1Ev, symObjAddr: 0x92E0, symBinAddr: 0x100010040, symSize: 0x20 }
  - { offset: 0x351C5, size: 0x8, addend: 0x0, symName: __ZNSt3__114__split_bufferIP6PlayerRNS_9allocatorIS2_EEEC2EmmS5_, symObjAddr: 0x9300, symBinAddr: 0x100010060, symSize: 0xD0 }
  - { offset: 0x35236, size: 0x8, addend: 0x0, symName: __ZNSt3__117__compressed_pairIPP6PlayerRNS_9allocatorIS2_EEEC1B8ne180100IDnS6_EEOT_OT0_, symObjAddr: 0x93D0, symBinAddr: 0x100010130, symSize: 0x30 }
  - { offset: 0x3528C, size: 0x8, addend: 0x0, symName: __ZNSt3__114__split_bufferIP6PlayerRNS_9allocatorIS2_EEE7__allocB8ne180100Ev, symObjAddr: 0x9400, symBinAddr: 0x100010160, symSize: 0x20 }
  - { offset: 0x352B0, size: 0x8, addend: 0x0, symName: __ZNSt3__114__split_bufferIP6PlayerRNS_9allocatorIS2_EEE9__end_capB8ne180100Ev, symObjAddr: 0x9420, symBinAddr: 0x100010180, symSize: 0x20 }
  - { offset: 0x352D4, size: 0x8, addend: 0x0, symName: __ZNSt3__117__compressed_pairIPP6PlayerRNS_9allocatorIS2_EEEC2B8ne180100IDnS6_EEOT_OT0_, symObjAddr: 0x9440, symBinAddr: 0x1000101A0, symSize: 0x40 }
  - { offset: 0x3532A, size: 0x8, addend: 0x0, symName: __ZNSt3__122__compressed_pair_elemIRNS_9allocatorIP6PlayerEELi1ELb0EEC2B8ne180100IS5_vEEOT_, symObjAddr: 0x9480, symBinAddr: 0x1000101E0, symSize: 0x20 }
  - { offset: 0x3536A, size: 0x8, addend: 0x0, symName: __ZNSt3__117__compressed_pairIPP6PlayerRNS_9allocatorIS2_EEE6secondB8ne180100Ev, symObjAddr: 0x94A0, symBinAddr: 0x100010200, symSize: 0x20 }
  - { offset: 0x3538E, size: 0x8, addend: 0x0, symName: __ZNSt3__122__compressed_pair_elemIRNS_9allocatorIP6PlayerEELi1ELb0EE5__getB8ne180100Ev, symObjAddr: 0x94C0, symBinAddr: 0x100010220, symSize: 0x20 }
  - { offset: 0x353B2, size: 0x8, addend: 0x0, symName: __ZNSt3__117__compressed_pairIPP6PlayerRNS_9allocatorIS2_EEE5firstB8ne180100Ev, symObjAddr: 0x94E0, symBinAddr: 0x100010240, symSize: 0x20 }
  - { offset: 0x353D6, size: 0x8, addend: 0x0, symName: __ZNSt3__116reverse_iteratorIPP6PlayerEC1B8ne180100ES3_, symObjAddr: 0x9570, symBinAddr: 0x1000102D0, symSize: 0x30 }
  - { offset: 0x3540C, size: 0x8, addend: 0x0, symName: __ZNKSt3__116reverse_iteratorIPP6PlayerE4baseB8ne180100Ev, symObjAddr: 0x95A0, symBinAddr: 0x100010300, symSize: 0x20 }
  - { offset: 0x35449, size: 0x8, addend: 0x0, symName: __ZNKSt3__111__move_loopINS_17_ClassicAlgPolicyEEclB8ne180100INS_16reverse_iteratorIPP6PlayerEES8_S8_EENS_4pairIT_T1_EESA_T0_SB_, symObjAddr: 0x9A40, symBinAddr: 0x1000107A0, symSize: 0xA0 }
  - { offset: 0x354B7, size: 0x8, addend: 0x0, symName: __ZNSt3__18_IterOpsINS_17_ClassicAlgPolicyEE11__iter_moveB8ne180100IRNS_16reverse_iteratorIPP6PlayerEELi0EEEDTclsr3stdE4movedeclsr3stdE7declvalIRT_EEEEOSA_, symObjAddr: 0x9C60, symBinAddr: 0x1000109C0, symSize: 0x20 }
  - { offset: 0x354E9, size: 0x8, addend: 0x0, symName: __ZNKSt3__116reverse_iteratorIPP6PlayerEdeB8ne180100Ev, symObjAddr: 0x9C80, symBinAddr: 0x1000109E0, symSize: 0x30 }
  - { offset: 0x3551B, size: 0x8, addend: 0x0, symName: __ZNSt3__116reverse_iteratorIPP6PlayerEppB8ne180100Ev, symObjAddr: 0x9CB0, symBinAddr: 0x100010A10, symSize: 0x20 }
  - { offset: 0x3553F, size: 0x8, addend: 0x0, symName: __ZNSt3__18_IterOpsINS_17_ClassicAlgPolicyEE25__validate_iter_referenceB8ne180100IRNS_16reverse_iteratorIPP6PlayerEEEEvv, symObjAddr: 0x9CD0, symBinAddr: 0x100010A30, symSize: 0x10 }
  - { offset: 0x3555C, size: 0x8, addend: 0x0, symName: __ZNSt3__118__unwrap_iter_implINS_16reverse_iteratorIPP6PlayerEELb0EE8__unwrapB8ne180100ES5_, symObjAddr: 0x9CE0, symBinAddr: 0x100010A40, symSize: 0x20 }
  - { offset: 0x35583, size: 0x8, addend: 0x0, symName: __ZNSt3__14pairINS_16reverse_iteratorIPP6PlayerEES5_EC1B8ne180100IS5_S5_Li0EEEOT_OT0_, symObjAddr: 0x9D00, symBinAddr: 0x100010A60, symSize: 0x30 }
  - { offset: 0x355E0, size: 0x8, addend: 0x0, symName: __ZNSt3__14pairINS_16reverse_iteratorIPP6PlayerEES5_EC2B8ne180100IS5_S5_Li0EEEOT_OT0_, symObjAddr: 0x9D30, symBinAddr: 0x100010A90, symSize: 0x40 }
  - { offset: 0x3563D, size: 0x8, addend: 0x0, symName: __ZNSt3__118__unwrap_iter_implINS_16reverse_iteratorIPP6PlayerEELb0EE8__rewrapB8ne180100ES5_S5_, symObjAddr: 0x9D70, symBinAddr: 0x100010AD0, symSize: 0x30 }
  - { offset: 0x35669, size: 0x8, addend: 0x0, symName: __ZNSt3__116reverse_iteratorIPP6PlayerEC2B8ne180100ES3_, symObjAddr: 0x9DA0, symBinAddr: 0x100010B00, symSize: 0x30 }
  - { offset: 0x356A0, size: 0x8, addend: 0x0, symName: __ZNSt3__114__split_bufferIP6PlayerRNS_9allocatorIS2_EEED2Ev, symObjAddr: 0x9DD0, symBinAddr: 0x100010B30, symSize: 0x70 }
  - { offset: 0x356CA, size: 0x8, addend: 0x0, symName: __ZNSt3__114__split_bufferIP6PlayerRNS_9allocatorIS2_EEE5clearB8ne180100Ev, symObjAddr: 0x9E40, symBinAddr: 0x100010BA0, symSize: 0x20 }
  - { offset: 0x356EE, size: 0x8, addend: 0x0, symName: __ZNKSt3__114__split_bufferIP6PlayerRNS_9allocatorIS2_EEE8capacityB8ne180100Ev, symObjAddr: 0x9E60, symBinAddr: 0x100010BC0, symSize: 0x30 }
  - { offset: 0x35712, size: 0x8, addend: 0x0, symName: __ZNSt3__114__split_bufferIP6PlayerRNS_9allocatorIS2_EEE17__destruct_at_endB8ne180100EPS2_, symObjAddr: 0x9E90, symBinAddr: 0x100010BF0, symSize: 0x30 }
  - { offset: 0x35744, size: 0x8, addend: 0x0, symName: __ZNSt3__114__split_bufferIP6PlayerRNS_9allocatorIS2_EEE17__destruct_at_endB8ne180100EPS2_NS_17integral_constantIbLb0EEE, symObjAddr: 0x9EC0, symBinAddr: 0x100010C20, symSize: 0x80 }
  - { offset: 0x35782, size: 0x8, addend: 0x0, symName: __ZNKSt3__114__split_bufferIP6PlayerRNS_9allocatorIS2_EEE9__end_capB8ne180100Ev, symObjAddr: 0x9F40, symBinAddr: 0x100010CA0, symSize: 0x20 }
  - { offset: 0x357A6, size: 0x8, addend: 0x0, symName: __ZNKSt3__117__compressed_pairIPP6PlayerRNS_9allocatorIS2_EEE5firstB8ne180100Ev, symObjAddr: 0x9F60, symBinAddr: 0x100010CC0, symSize: 0x20 }
  - { offset: 0x357CB, size: 0x8, addend: 0x0, symName: __ZNSt3__16vectorIP6PlayerNS_9allocatorIS2_EEEC2ERKS5_, symObjAddr: 0x9F80, symBinAddr: 0x100010CE0, symSize: 0xA0 }
  - { offset: 0x35804, size: 0x8, addend: 0x0, symName: __ZNSt3__116allocator_traitsINS_9allocatorIP6PlayerEEE37select_on_container_copy_constructionB8ne180100IS4_vvEES4_RKS4_, symObjAddr: 0xA020, symBinAddr: 0x100010D80, symSize: 0x10 }
  - { offset: 0x35837, size: 0x8, addend: 0x0, symName: __ZNSt3__117__compressed_pairIPP6PlayerNS_9allocatorIS2_EEEC1B8ne180100IDnS5_EEOT_OT0_, symObjAddr: 0xA030, symBinAddr: 0x100010D90, symSize: 0x30 }
  - { offset: 0x3588D, size: 0x8, addend: 0x0, symName: __ZNSt3__16vectorIP6PlayerNS_9allocatorIS2_EEE16__init_with_sizeB8ne180100IPS2_S7_EEvT_T0_m, symObjAddr: 0xA060, symBinAddr: 0x100010DC0, symSize: 0xB0 }
  - { offset: 0x358FF, size: 0x8, addend: 0x0, symName: __ZNSt3__117__compressed_pairIPP6PlayerNS_9allocatorIS2_EEEC2B8ne180100IDnS5_EEOT_OT0_, symObjAddr: 0xA110, symBinAddr: 0x100010E70, symSize: 0x40 }
  - { offset: 0x35955, size: 0x8, addend: 0x0, symName: __ZNSt3__122__compressed_pair_elemINS_9allocatorIP6PlayerEELi1ELb1EEC2B8ne180100IS4_vEEOT_, symObjAddr: 0xA150, symBinAddr: 0x100010EB0, symSize: 0x10 }
  - { offset: 0x35995, size: 0x8, addend: 0x0, symName: __ZNSt3__128__exception_guard_exceptionsINS_6vectorIP6PlayerNS_9allocatorIS3_EEE16__destroy_vectorEE10__completeB8ne180100Ev, symObjAddr: 0xA1A0, symBinAddr: 0x100010F00, symSize: 0x20 }
  - { offset: 0x359B9, size: 0x8, addend: 0x0, symName: __ZNSt3__128__exception_guard_exceptionsINS_6vectorIP6PlayerNS_9allocatorIS3_EEE16__destroy_vectorEED1B8ne180100Ev, symObjAddr: 0xA1C0, symBinAddr: 0x100010F20, symSize: 0x20 }
  - { offset: 0x359E1, size: 0x8, addend: 0x0, symName: __ZNSt3__128__exception_guard_exceptionsINS_6vectorIP6PlayerNS_9allocatorIS3_EEE16__destroy_vectorEEC1B8ne180100ES7_, symObjAddr: 0xA1E0, symBinAddr: 0x100010F40, symSize: 0x30 }
  - { offset: 0x35A17, size: 0x8, addend: 0x0, symName: __ZNSt3__128__exception_guard_exceptionsINS_6vectorIP6PlayerNS_9allocatorIS3_EEE16__destroy_vectorEEC2B8ne180100ES7_, symObjAddr: 0xA210, symBinAddr: 0x100010F70, symSize: 0x20 }
  - { offset: 0x35A4D, size: 0x8, addend: 0x0, symName: __ZNSt3__128__exception_guard_exceptionsINS_6vectorIP6PlayerNS_9allocatorIS3_EEE16__destroy_vectorEED2B8ne180100Ev, symObjAddr: 0xA230, symBinAddr: 0x100010F90, symSize: 0x2D }
...
